
dic.elf:     file format elf32-avr

Sections:
Idx Name          Size      VMA       LMA       File off  Algn
  0 .data         000000d2  00800100  00002a36  00002aca  2**0
                  CONTENTS, ALLOC, LOAD, DATA
  1 .text         00002a36  00000000  00000000  00000094  2**1
                  CONTENTS, ALLOC, LOAD, READONLY, CODE
  2 .bss          00000286  008001d2  008001d2  00002b9c  2**0
                  ALLOC
  3 .comment      00000060  00000000  00000000  00002b9c  2**0
                  CONTENTS, READONLY
  4 .note.gnu.avr.deviceinfo 00000040  00000000  00000000  00002bfc  2**2
                  CONTENTS, READONLY
  5 .debug_aranges 00000218  00000000  00000000  00002c3c  2**0
                  CONTENTS, READONLY, DEBUGGING
  6 .debug_info   0000230f  00000000  00000000  00002e54  2**0
                  CONTENTS, READONLY, DEBUGGING
  7 .debug_abbrev 000011c4  00000000  00000000  00005163  2**0
                  CONTENTS, READONLY, DEBUGGING
  8 .debug_line   00001d90  00000000  00000000  00006327  2**0
                  CONTENTS, READONLY, DEBUGGING
  9 .debug_frame  000006e0  00000000  00000000  000080b8  2**2
                  CONTENTS, READONLY, DEBUGGING
 10 .debug_str    00000f46  00000000  00000000  00008798  2**0
                  CONTENTS, READONLY, DEBUGGING
 11 .debug_loc    00000d71  00000000  00000000  000096de  2**0
                  CONTENTS, READONLY, DEBUGGING
 12 .debug_ranges 00000198  00000000  00000000  0000a44f  2**0
                  CONTENTS, READONLY, DEBUGGING

Disassembly of section .text:

00000000 <__vectors>:
       0:	49 c0       	rjmp	.+146    	; 0x94 <__ctors_end>
       2:	00 00       	nop
       4:	66 c0       	rjmp	.+204    	; 0xd2 <__bad_interrupt>
       6:	00 00       	nop
       8:	64 c0       	rjmp	.+200    	; 0xd2 <__bad_interrupt>
       a:	00 00       	nop
       c:	62 c0       	rjmp	.+196    	; 0xd2 <__bad_interrupt>
       e:	00 00       	nop
      10:	60 c0       	rjmp	.+192    	; 0xd2 <__bad_interrupt>
      12:	00 00       	nop
      14:	5e c0       	rjmp	.+188    	; 0xd2 <__bad_interrupt>
      16:	00 00       	nop
      18:	5c c0       	rjmp	.+184    	; 0xd2 <__bad_interrupt>
      1a:	00 00       	nop
      1c:	5a c0       	rjmp	.+180    	; 0xd2 <__bad_interrupt>
      1e:	00 00       	nop
      20:	58 c0       	rjmp	.+176    	; 0xd2 <__bad_interrupt>
      22:	00 00       	nop
      24:	56 c0       	rjmp	.+172    	; 0xd2 <__bad_interrupt>
      26:	00 00       	nop
      28:	54 c0       	rjmp	.+168    	; 0xd2 <__bad_interrupt>
      2a:	00 00       	nop
      2c:	52 c0       	rjmp	.+164    	; 0xd2 <__bad_interrupt>
      2e:	00 00       	nop
      30:	50 c0       	rjmp	.+160    	; 0xd2 <__bad_interrupt>
      32:	00 00       	nop
      34:	4e c0       	rjmp	.+156    	; 0xd2 <__bad_interrupt>
      36:	00 00       	nop
      38:	4c c0       	rjmp	.+152    	; 0xd2 <__bad_interrupt>
      3a:	00 00       	nop
      3c:	4a c0       	rjmp	.+148    	; 0xd2 <__bad_interrupt>
      3e:	00 00       	nop
      40:	0c 94 e5 12 	jmp	0x25ca	; 0x25ca <__vector_16>
      44:	46 c0       	rjmp	.+140    	; 0xd2 <__bad_interrupt>
      46:	00 00       	nop
      48:	44 c0       	rjmp	.+136    	; 0xd2 <__bad_interrupt>
      4a:	00 00       	nop
      4c:	42 c0       	rjmp	.+132    	; 0xd2 <__bad_interrupt>
      4e:	00 00       	nop
      50:	0c 94 fd 11 	jmp	0x23fa	; 0x23fa <__vector_20>
      54:	3e c0       	rjmp	.+124    	; 0xd2 <__bad_interrupt>
      56:	00 00       	nop
      58:	3c c0       	rjmp	.+120    	; 0xd2 <__bad_interrupt>
      5a:	00 00       	nop
      5c:	3a c0       	rjmp	.+116    	; 0xd2 <__bad_interrupt>
      5e:	00 00       	nop
      60:	38 c0       	rjmp	.+112    	; 0xd2 <__bad_interrupt>
      62:	00 00       	nop
      64:	36 c0       	rjmp	.+108    	; 0xd2 <__bad_interrupt>
      66:	00 00       	nop
      68:	34 c0       	rjmp	.+104    	; 0xd2 <__bad_interrupt>
      6a:	00 00       	nop
      6c:	32 c0       	rjmp	.+100    	; 0xd2 <__bad_interrupt>
      6e:	00 00       	nop
      70:	30 c0       	rjmp	.+96     	; 0xd2 <__bad_interrupt>
      72:	00 00       	nop
      74:	2e c0       	rjmp	.+92     	; 0xd2 <__bad_interrupt>
      76:	00 00       	nop
      78:	2c c0       	rjmp	.+88     	; 0xd2 <__bad_interrupt>
      7a:	00 00       	nop
      7c:	2a c0       	rjmp	.+84     	; 0xd2 <__bad_interrupt>
      7e:	00 00       	nop
      80:	28 c0       	rjmp	.+80     	; 0xd2 <__bad_interrupt>
      82:	00 00       	nop
      84:	26 c0       	rjmp	.+76     	; 0xd2 <__bad_interrupt>
      86:	00 00       	nop
      88:	24 c0       	rjmp	.+72     	; 0xd2 <__bad_interrupt>
      8a:	00 00       	nop
      8c:	22 c0       	rjmp	.+68     	; 0xd2 <__bad_interrupt>
      8e:	00 00       	nop
      90:	20 c0       	rjmp	.+64     	; 0xd2 <__bad_interrupt>
	...

00000094 <__ctors_end>:
      94:	11 24       	eor	r1, r1
      96:	1f be       	out	0x3f, r1	; 63
      98:	cf ef       	ldi	r28, 0xFF	; 255
      9a:	d0 e1       	ldi	r29, 0x10	; 16
      9c:	de bf       	out	0x3e, r29	; 62
      9e:	cd bf       	out	0x3d, r28	; 61

000000a0 <__do_copy_data>:
      a0:	11 e0       	ldi	r17, 0x01	; 1
      a2:	a0 e0       	ldi	r26, 0x00	; 0
      a4:	b1 e0       	ldi	r27, 0x01	; 1
      a6:	e6 e3       	ldi	r30, 0x36	; 54
      a8:	fa e2       	ldi	r31, 0x2A	; 42
      aa:	00 e0       	ldi	r16, 0x00	; 0
      ac:	0b bf       	out	0x3b, r16	; 59
      ae:	02 c0       	rjmp	.+4      	; 0xb4 <__do_copy_data+0x14>
      b0:	07 90       	elpm	r0, Z+
      b2:	0d 92       	st	X+, r0
      b4:	a2 3d       	cpi	r26, 0xD2	; 210
      b6:	b1 07       	cpc	r27, r17
      b8:	d9 f7       	brne	.-10     	; 0xb0 <__do_copy_data+0x10>

000000ba <__do_clear_bss>:
      ba:	24 e0       	ldi	r18, 0x04	; 4
      bc:	a2 ed       	ldi	r26, 0xD2	; 210
      be:	b1 e0       	ldi	r27, 0x01	; 1
      c0:	01 c0       	rjmp	.+2      	; 0xc4 <.do_clear_bss_start>

000000c2 <.do_clear_bss_loop>:
      c2:	1d 92       	st	X+, r1

000000c4 <.do_clear_bss_start>:
      c4:	a8 35       	cpi	r26, 0x58	; 88
      c6:	b2 07       	cpc	r27, r18
      c8:	e1 f7       	brne	.-8      	; 0xc2 <.do_clear_bss_loop>
      ca:	0e 94 97 0e 	call	0x1d2e	; 0x1d2e <main>
      ce:	0c 94 19 15 	jmp	0x2a32	; 0x2a32 <_exit>

000000d2 <__bad_interrupt>:
      d2:	96 cf       	rjmp	.-212    	; 0x0 <__vectors>

000000d4 <can_check_free>:
      d4:	cf 93       	push	r28
      d6:	df 93       	push	r29
      d8:	00 d0       	rcall	.+0      	; 0xda <can_check_free+0x6>
      da:	cd b7       	in	r28, 0x3d	; 61
      dc:	de b7       	in	r29, 0x3e	; 62
      de:	8a 83       	std	Y+2, r24	; 0x02
      e0:	19 82       	std	Y+1, r1	; 0x01
      e2:	8a 81       	ldd	r24, Y+2	; 0x02
      e4:	88 30       	cpi	r24, 0x08	; 8
      e6:	c0 f0       	brcs	.+48     	; 0x118 <can_check_free+0x44>
      e8:	8d ed       	ldi	r24, 0xDD	; 221
      ea:	90 e0       	ldi	r25, 0x00	; 0
      ec:	fc 01       	movw	r30, r24
      ee:	80 81       	ld	r24, Z
      f0:	88 2f       	mov	r24, r24
      f2:	90 e0       	ldi	r25, 0x00	; 0
      f4:	2a 81       	ldd	r18, Y+2	; 0x02
      f6:	22 2f       	mov	r18, r18
      f8:	30 e0       	ldi	r19, 0x00	; 0
      fa:	28 50       	subi	r18, 0x08	; 8
      fc:	31 09       	sbc	r19, r1
      fe:	02 c0       	rjmp	.+4      	; 0x104 <can_check_free+0x30>
     100:	95 95       	asr	r25
     102:	87 95       	ror	r24
     104:	2a 95       	dec	r18
     106:	e2 f7       	brpl	.-8      	; 0x100 <can_check_free+0x2c>
     108:	81 70       	andi	r24, 0x01	; 1
     10a:	99 27       	eor	r25, r25
     10c:	21 e0       	ldi	r18, 0x01	; 1
     10e:	89 2b       	or	r24, r25
     110:	09 f0       	breq	.+2      	; 0x114 <can_check_free+0x40>
     112:	20 e0       	ldi	r18, 0x00	; 0
     114:	29 83       	std	Y+1, r18	; 0x01
     116:	15 c0       	rjmp	.+42     	; 0x142 <can_check_free+0x6e>
     118:	8c ed       	ldi	r24, 0xDC	; 220
     11a:	90 e0       	ldi	r25, 0x00	; 0
     11c:	fc 01       	movw	r30, r24
     11e:	80 81       	ld	r24, Z
     120:	88 2f       	mov	r24, r24
     122:	90 e0       	ldi	r25, 0x00	; 0
     124:	2a 81       	ldd	r18, Y+2	; 0x02
     126:	22 2f       	mov	r18, r18
     128:	30 e0       	ldi	r19, 0x00	; 0
     12a:	02 c0       	rjmp	.+4      	; 0x130 <can_check_free+0x5c>
     12c:	95 95       	asr	r25
     12e:	87 95       	ror	r24
     130:	2a 95       	dec	r18
     132:	e2 f7       	brpl	.-8      	; 0x12c <can_check_free+0x58>
     134:	81 70       	andi	r24, 0x01	; 1
     136:	99 27       	eor	r25, r25
     138:	21 e0       	ldi	r18, 0x01	; 1
     13a:	89 2b       	or	r24, r25
     13c:	09 f0       	breq	.+2      	; 0x140 <can_check_free+0x6c>
     13e:	20 e0       	ldi	r18, 0x00	; 0
     140:	29 83       	std	Y+1, r18	; 0x01
     142:	89 81       	ldd	r24, Y+1	; 0x01
     144:	0f 90       	pop	r0
     146:	0f 90       	pop	r0
     148:	df 91       	pop	r29
     14a:	cf 91       	pop	r28
     14c:	08 95       	ret

0000014e <can_cfg>:
     14e:	cf 93       	push	r28
     150:	df 93       	push	r29
     152:	00 d0       	rcall	.+0      	; 0x154 <can_cfg+0x6>
     154:	cd b7       	in	r28, 0x3d	; 61
     156:	de b7       	in	r29, 0x3e	; 62
     158:	88 ed       	ldi	r24, 0xD8	; 216
     15a:	90 e0       	ldi	r25, 0x00	; 0
     15c:	fc 01       	movw	r30, r24
     15e:	10 82       	st	Z, r1
     160:	19 82       	std	Y+1, r1	; 0x01
     162:	56 c0       	rjmp	.+172    	; 0x210 <can_cfg+0xc2>
     164:	8d ee       	ldi	r24, 0xED	; 237
     166:	90 e0       	ldi	r25, 0x00	; 0
     168:	29 81       	ldd	r18, Y+1	; 0x01
     16a:	22 2f       	mov	r18, r18
     16c:	30 e0       	ldi	r19, 0x00	; 0
     16e:	22 95       	swap	r18
     170:	32 95       	swap	r19
     172:	30 7f       	andi	r19, 0xF0	; 240
     174:	32 27       	eor	r19, r18
     176:	20 7f       	andi	r18, 0xF0	; 240
     178:	32 27       	eor	r19, r18
     17a:	28 60       	ori	r18, 0x08	; 8
     17c:	fc 01       	movw	r30, r24
     17e:	20 83       	st	Z, r18
     180:	8e ee       	ldi	r24, 0xEE	; 238
     182:	90 e0       	ldi	r25, 0x00	; 0
     184:	fc 01       	movw	r30, r24
     186:	10 82       	st	Z, r1
     188:	8f ee       	ldi	r24, 0xEF	; 239
     18a:	90 e0       	ldi	r25, 0x00	; 0
     18c:	fc 01       	movw	r30, r24
     18e:	10 82       	st	Z, r1
     190:	80 ef       	ldi	r24, 0xF0	; 240
     192:	90 e0       	ldi	r25, 0x00	; 0
     194:	fc 01       	movw	r30, r24
     196:	10 82       	st	Z, r1
     198:	81 ef       	ldi	r24, 0xF1	; 241
     19a:	90 e0       	ldi	r25, 0x00	; 0
     19c:	fc 01       	movw	r30, r24
     19e:	10 82       	st	Z, r1
     1a0:	82 ef       	ldi	r24, 0xF2	; 242
     1a2:	90 e0       	ldi	r25, 0x00	; 0
     1a4:	fc 01       	movw	r30, r24
     1a6:	10 82       	st	Z, r1
     1a8:	83 ef       	ldi	r24, 0xF3	; 243
     1aa:	90 e0       	ldi	r25, 0x00	; 0
     1ac:	fc 01       	movw	r30, r24
     1ae:	10 82       	st	Z, r1
     1b0:	84 ef       	ldi	r24, 0xF4	; 244
     1b2:	90 e0       	ldi	r25, 0x00	; 0
     1b4:	fc 01       	movw	r30, r24
     1b6:	10 82       	st	Z, r1
     1b8:	85 ef       	ldi	r24, 0xF5	; 245
     1ba:	90 e0       	ldi	r25, 0x00	; 0
     1bc:	fc 01       	movw	r30, r24
     1be:	10 82       	st	Z, r1
     1c0:	86 ef       	ldi	r24, 0xF6	; 246
     1c2:	90 e0       	ldi	r25, 0x00	; 0
     1c4:	fc 01       	movw	r30, r24
     1c6:	10 82       	st	Z, r1
     1c8:	87 ef       	ldi	r24, 0xF7	; 247
     1ca:	90 e0       	ldi	r25, 0x00	; 0
     1cc:	fc 01       	movw	r30, r24
     1ce:	10 82       	st	Z, r1
     1d0:	1a 82       	std	Y+2, r1	; 0x02
     1d2:	18 c0       	rjmp	.+48     	; 0x204 <can_cfg+0xb6>
     1d4:	8d ee       	ldi	r24, 0xED	; 237
     1d6:	90 e0       	ldi	r25, 0x00	; 0
     1d8:	29 81       	ldd	r18, Y+1	; 0x01
     1da:	22 2f       	mov	r18, r18
     1dc:	30 e0       	ldi	r19, 0x00	; 0
     1de:	22 95       	swap	r18
     1e0:	32 95       	swap	r19
     1e2:	30 7f       	andi	r19, 0xF0	; 240
     1e4:	32 27       	eor	r19, r18
     1e6:	20 7f       	andi	r18, 0xF0	; 240
     1e8:	32 27       	eor	r19, r18
     1ea:	32 2f       	mov	r19, r18
     1ec:	2a 81       	ldd	r18, Y+2	; 0x02
     1ee:	23 2b       	or	r18, r19
     1f0:	28 60       	ori	r18, 0x08	; 8
     1f2:	fc 01       	movw	r30, r24
     1f4:	20 83       	st	Z, r18
     1f6:	8a ef       	ldi	r24, 0xFA	; 250
     1f8:	90 e0       	ldi	r25, 0x00	; 0
     1fa:	fc 01       	movw	r30, r24
     1fc:	10 82       	st	Z, r1
     1fe:	8a 81       	ldd	r24, Y+2	; 0x02
     200:	8f 5f       	subi	r24, 0xFF	; 255
     202:	8a 83       	std	Y+2, r24	; 0x02
     204:	8a 81       	ldd	r24, Y+2	; 0x02
     206:	88 30       	cpi	r24, 0x08	; 8
     208:	28 f3       	brcs	.-54     	; 0x1d4 <can_cfg+0x86>
     20a:	89 81       	ldd	r24, Y+1	; 0x01
     20c:	8f 5f       	subi	r24, 0xFF	; 255
     20e:	89 83       	std	Y+1, r24	; 0x01
     210:	89 81       	ldd	r24, Y+1	; 0x01
     212:	8f 30       	cpi	r24, 0x0F	; 15
     214:	08 f4       	brcc	.+2      	; 0x218 <can_cfg+0xca>
     216:	a6 cf       	rjmp	.-180    	; 0x164 <can_cfg+0x16>
     218:	82 ee       	ldi	r24, 0xE2	; 226
     21a:	90 e0       	ldi	r25, 0x00	; 0
     21c:	22 e0       	ldi	r18, 0x02	; 2
     21e:	fc 01       	movw	r30, r24
     220:	20 83       	st	Z, r18
     222:	83 ee       	ldi	r24, 0xE3	; 227
     224:	90 e0       	ldi	r25, 0x00	; 0
     226:	2c e0       	ldi	r18, 0x0C	; 12
     228:	fc 01       	movw	r30, r24
     22a:	20 83       	st	Z, r18
     22c:	84 ee       	ldi	r24, 0xE4	; 228
     22e:	90 e0       	ldi	r25, 0x00	; 0
     230:	27 e3       	ldi	r18, 0x37	; 55
     232:	fc 01       	movw	r30, r24
     234:	20 83       	st	Z, r18
     236:	8b ed       	ldi	r24, 0xDB	; 219
     238:	90 e0       	ldi	r25, 0x00	; 0
     23a:	fc 01       	movw	r30, r24
     23c:	10 82       	st	Z, r1
     23e:	88 ed       	ldi	r24, 0xD8	; 216
     240:	90 e0       	ldi	r25, 0x00	; 0
     242:	28 ed       	ldi	r18, 0xD8	; 216
     244:	30 e0       	ldi	r19, 0x00	; 0
     246:	f9 01       	movw	r30, r18
     248:	20 81       	ld	r18, Z
     24a:	22 60       	ori	r18, 0x02	; 2
     24c:	fc 01       	movw	r30, r24
     24e:	20 83       	st	Z, r18
     250:	00 00       	nop
     252:	0f 90       	pop	r0
     254:	0f 90       	pop	r0
     256:	df 91       	pop	r29
     258:	cf 91       	pop	r28
     25a:	08 95       	ret

0000025c <can_rx>:
     25c:	cf 93       	push	r28
     25e:	df 93       	push	r29
     260:	00 d0       	rcall	.+0      	; 0x262 <can_rx+0x6>
     262:	00 d0       	rcall	.+0      	; 0x264 <can_rx+0x8>
     264:	1f 92       	push	r1
     266:	cd b7       	in	r28, 0x3d	; 61
     268:	de b7       	in	r29, 0x3e	; 62
     26a:	9b 83       	std	Y+3, r25	; 0x03
     26c:	8a 83       	std	Y+2, r24	; 0x02
     26e:	7d 83       	std	Y+5, r23	; 0x05
     270:	6c 83       	std	Y+4, r22	; 0x04
     272:	8d ee       	ldi	r24, 0xED	; 237
     274:	90 e0       	ldi	r25, 0x00	; 0
     276:	2a 81       	ldd	r18, Y+2	; 0x02
     278:	3b 81       	ldd	r19, Y+3	; 0x03
     27a:	f9 01       	movw	r30, r18
     27c:	24 81       	ldd	r18, Z+4	; 0x04
     27e:	22 95       	swap	r18
     280:	20 7f       	andi	r18, 0xF0	; 240
     282:	fc 01       	movw	r30, r24
     284:	20 83       	st	Z, r18
     286:	8a 81       	ldd	r24, Y+2	; 0x02
     288:	9b 81       	ldd	r25, Y+3	; 0x03
     28a:	fc 01       	movw	r30, r24
     28c:	84 81       	ldd	r24, Z+4	; 0x04
     28e:	22 df       	rcall	.-444    	; 0xd4 <can_check_free>
     290:	88 23       	and	r24, r24
     292:	09 f4       	brne	.+2      	; 0x296 <can_rx+0x3a>
     294:	50 c0       	rjmp	.+160    	; 0x336 <can_rx+0xda>
     296:	83 ef       	ldi	r24, 0xF3	; 243
     298:	90 e0       	ldi	r25, 0x00	; 0
     29a:	2a 81       	ldd	r18, Y+2	; 0x02
     29c:	3b 81       	ldd	r19, Y+3	; 0x03
     29e:	f9 01       	movw	r30, r18
     2a0:	20 81       	ld	r18, Z
     2a2:	31 81       	ldd	r19, Z+1	; 0x01
     2a4:	36 95       	lsr	r19
     2a6:	27 95       	ror	r18
     2a8:	36 95       	lsr	r19
     2aa:	27 95       	ror	r18
     2ac:	36 95       	lsr	r19
     2ae:	27 95       	ror	r18
     2b0:	fc 01       	movw	r30, r24
     2b2:	20 83       	st	Z, r18
     2b4:	82 ef       	ldi	r24, 0xF2	; 242
     2b6:	90 e0       	ldi	r25, 0x00	; 0
     2b8:	2a 81       	ldd	r18, Y+2	; 0x02
     2ba:	3b 81       	ldd	r19, Y+3	; 0x03
     2bc:	f9 01       	movw	r30, r18
     2be:	20 81       	ld	r18, Z
     2c0:	31 81       	ldd	r19, Z+1	; 0x01
     2c2:	22 95       	swap	r18
     2c4:	22 0f       	add	r18, r18
     2c6:	20 7e       	andi	r18, 0xE0	; 224
     2c8:	fc 01       	movw	r30, r24
     2ca:	20 83       	st	Z, r18
     2cc:	81 ef       	ldi	r24, 0xF1	; 241
     2ce:	90 e0       	ldi	r25, 0x00	; 0
     2d0:	fc 01       	movw	r30, r24
     2d2:	10 82       	st	Z, r1
     2d4:	80 ef       	ldi	r24, 0xF0	; 240
     2d6:	90 e0       	ldi	r25, 0x00	; 0
     2d8:	24 e0       	ldi	r18, 0x04	; 4
     2da:	fc 01       	movw	r30, r24
     2dc:	20 83       	st	Z, r18
     2de:	87 ef       	ldi	r24, 0xF7	; 247
     2e0:	90 e0       	ldi	r25, 0x00	; 0
     2e2:	2a 81       	ldd	r18, Y+2	; 0x02
     2e4:	3b 81       	ldd	r19, Y+3	; 0x03
     2e6:	f9 01       	movw	r30, r18
     2e8:	22 81       	ldd	r18, Z+2	; 0x02
     2ea:	33 81       	ldd	r19, Z+3	; 0x03
     2ec:	36 95       	lsr	r19
     2ee:	27 95       	ror	r18
     2f0:	36 95       	lsr	r19
     2f2:	27 95       	ror	r18
     2f4:	36 95       	lsr	r19
     2f6:	27 95       	ror	r18
     2f8:	fc 01       	movw	r30, r24
     2fa:	20 83       	st	Z, r18
     2fc:	86 ef       	ldi	r24, 0xF6	; 246
     2fe:	90 e0       	ldi	r25, 0x00	; 0
     300:	2a 81       	ldd	r18, Y+2	; 0x02
     302:	3b 81       	ldd	r19, Y+3	; 0x03
     304:	f9 01       	movw	r30, r18
     306:	22 81       	ldd	r18, Z+2	; 0x02
     308:	33 81       	ldd	r19, Z+3	; 0x03
     30a:	22 95       	swap	r18
     30c:	22 0f       	add	r18, r18
     30e:	20 7e       	andi	r18, 0xE0	; 224
     310:	fc 01       	movw	r30, r24
     312:	20 83       	st	Z, r18
     314:	85 ef       	ldi	r24, 0xF5	; 245
     316:	90 e0       	ldi	r25, 0x00	; 0
     318:	fc 01       	movw	r30, r24
     31a:	10 82       	st	Z, r1
     31c:	84 ef       	ldi	r24, 0xF4	; 244
     31e:	90 e0       	ldi	r25, 0x00	; 0
     320:	fc 01       	movw	r30, r24
     322:	10 82       	st	Z, r1
     324:	8f ee       	ldi	r24, 0xEF	; 239
     326:	90 e0       	ldi	r25, 0x00	; 0
     328:	28 ec       	ldi	r18, 0xC8	; 200
     32a:	fc 01       	movw	r30, r24
     32c:	20 83       	st	Z, r18
     32e:	8e ee       	ldi	r24, 0xEE	; 238
     330:	90 e0       	ldi	r25, 0x00	; 0
     332:	fc 01       	movw	r30, r24
     334:	10 82       	st	Z, r1
     336:	19 82       	std	Y+1, r1	; 0x01
     338:	24 c0       	rjmp	.+72     	; 0x382 <can_rx+0x126>
     33a:	8d ee       	ldi	r24, 0xED	; 237
     33c:	90 e0       	ldi	r25, 0x00	; 0
     33e:	2a 81       	ldd	r18, Y+2	; 0x02
     340:	3b 81       	ldd	r19, Y+3	; 0x03
     342:	f9 01       	movw	r30, r18
     344:	24 81       	ldd	r18, Z+4	; 0x04
     346:	22 2f       	mov	r18, r18
     348:	30 e0       	ldi	r19, 0x00	; 0
     34a:	22 95       	swap	r18
     34c:	32 95       	swap	r19
     34e:	30 7f       	andi	r19, 0xF0	; 240
     350:	32 27       	eor	r19, r18
     352:	20 7f       	andi	r18, 0xF0	; 240
     354:	32 27       	eor	r19, r18
     356:	32 2f       	mov	r19, r18
     358:	29 81       	ldd	r18, Y+1	; 0x01
     35a:	23 2b       	or	r18, r19
     35c:	28 60       	ori	r18, 0x08	; 8
     35e:	fc 01       	movw	r30, r24
     360:	20 83       	st	Z, r18
     362:	89 81       	ldd	r24, Y+1	; 0x01
     364:	88 2f       	mov	r24, r24
     366:	90 e0       	ldi	r25, 0x00	; 0
     368:	2c 81       	ldd	r18, Y+4	; 0x04
     36a:	3d 81       	ldd	r19, Y+5	; 0x05
     36c:	82 0f       	add	r24, r18
     36e:	93 1f       	adc	r25, r19
     370:	2a ef       	ldi	r18, 0xFA	; 250
     372:	30 e0       	ldi	r19, 0x00	; 0
     374:	f9 01       	movw	r30, r18
     376:	20 81       	ld	r18, Z
     378:	fc 01       	movw	r30, r24
     37a:	20 83       	st	Z, r18
     37c:	89 81       	ldd	r24, Y+1	; 0x01
     37e:	8f 5f       	subi	r24, 0xFF	; 255
     380:	89 83       	std	Y+1, r24	; 0x01
     382:	89 81       	ldd	r24, Y+1	; 0x01
     384:	88 30       	cpi	r24, 0x08	; 8
     386:	c8 f2       	brcs	.-78     	; 0x33a <can_rx+0xde>
     388:	00 00       	nop
     38a:	0f 90       	pop	r0
     38c:	0f 90       	pop	r0
     38e:	0f 90       	pop	r0
     390:	0f 90       	pop	r0
     392:	0f 90       	pop	r0
     394:	df 91       	pop	r29
     396:	cf 91       	pop	r28
     398:	08 95       	ret

0000039a <can_tx>:
     39a:	cf 93       	push	r28
     39c:	df 93       	push	r29
     39e:	00 d0       	rcall	.+0      	; 0x3a0 <can_tx+0x6>
     3a0:	00 d0       	rcall	.+0      	; 0x3a2 <can_tx+0x8>
     3a2:	1f 92       	push	r1
     3a4:	cd b7       	in	r28, 0x3d	; 61
     3a6:	de b7       	in	r29, 0x3e	; 62
     3a8:	9b 83       	std	Y+3, r25	; 0x03
     3aa:	8a 83       	std	Y+2, r24	; 0x02
     3ac:	7d 83       	std	Y+5, r23	; 0x05
     3ae:	6c 83       	std	Y+4, r22	; 0x04
     3b0:	19 82       	std	Y+1, r1	; 0x01
     3b2:	24 c0       	rjmp	.+72     	; 0x3fc <can_tx+0x62>
     3b4:	8d ee       	ldi	r24, 0xED	; 237
     3b6:	90 e0       	ldi	r25, 0x00	; 0
     3b8:	2a 81       	ldd	r18, Y+2	; 0x02
     3ba:	3b 81       	ldd	r19, Y+3	; 0x03
     3bc:	f9 01       	movw	r30, r18
     3be:	24 81       	ldd	r18, Z+4	; 0x04
     3c0:	22 2f       	mov	r18, r18
     3c2:	30 e0       	ldi	r19, 0x00	; 0
     3c4:	22 95       	swap	r18
     3c6:	32 95       	swap	r19
     3c8:	30 7f       	andi	r19, 0xF0	; 240
     3ca:	32 27       	eor	r19, r18
     3cc:	20 7f       	andi	r18, 0xF0	; 240
     3ce:	32 27       	eor	r19, r18
     3d0:	32 2f       	mov	r19, r18
     3d2:	29 81       	ldd	r18, Y+1	; 0x01
     3d4:	23 2b       	or	r18, r19
     3d6:	28 60       	ori	r18, 0x08	; 8
     3d8:	fc 01       	movw	r30, r24
     3da:	20 83       	st	Z, r18
     3dc:	8a ef       	ldi	r24, 0xFA	; 250
     3de:	90 e0       	ldi	r25, 0x00	; 0
     3e0:	29 81       	ldd	r18, Y+1	; 0x01
     3e2:	22 2f       	mov	r18, r18
     3e4:	30 e0       	ldi	r19, 0x00	; 0
     3e6:	4c 81       	ldd	r20, Y+4	; 0x04
     3e8:	5d 81       	ldd	r21, Y+5	; 0x05
     3ea:	24 0f       	add	r18, r20
     3ec:	35 1f       	adc	r19, r21
     3ee:	f9 01       	movw	r30, r18
     3f0:	20 81       	ld	r18, Z
     3f2:	fc 01       	movw	r30, r24
     3f4:	20 83       	st	Z, r18
     3f6:	89 81       	ldd	r24, Y+1	; 0x01
     3f8:	8f 5f       	subi	r24, 0xFF	; 255
     3fa:	89 83       	std	Y+1, r24	; 0x01
     3fc:	89 81       	ldd	r24, Y+1	; 0x01
     3fe:	88 30       	cpi	r24, 0x08	; 8
     400:	c8 f2       	brcs	.-78     	; 0x3b4 <can_tx+0x1a>
     402:	8d ee       	ldi	r24, 0xED	; 237
     404:	90 e0       	ldi	r25, 0x00	; 0
     406:	2a 81       	ldd	r18, Y+2	; 0x02
     408:	3b 81       	ldd	r19, Y+3	; 0x03
     40a:	f9 01       	movw	r30, r18
     40c:	24 81       	ldd	r18, Z+4	; 0x04
     40e:	22 95       	swap	r18
     410:	20 7f       	andi	r18, 0xF0	; 240
     412:	fc 01       	movw	r30, r24
     414:	20 83       	st	Z, r18
     416:	8a 81       	ldd	r24, Y+2	; 0x02
     418:	9b 81       	ldd	r25, Y+3	; 0x03
     41a:	fc 01       	movw	r30, r24
     41c:	84 81       	ldd	r24, Z+4	; 0x04
     41e:	5a de       	rcall	.-844    	; 0xd4 <can_check_free>
     420:	88 23       	and	r24, r24
     422:	09 f4       	brne	.+2      	; 0x426 <__LOCK_REGION_LENGTH__+0x26>
     424:	44 c0       	rjmp	.+136    	; 0x4ae <__LOCK_REGION_LENGTH__+0xae>
     426:	8e ee       	ldi	r24, 0xEE	; 238
     428:	90 e0       	ldi	r25, 0x00	; 0
     42a:	fc 01       	movw	r30, r24
     42c:	10 82       	st	Z, r1
     42e:	83 ef       	ldi	r24, 0xF3	; 243
     430:	90 e0       	ldi	r25, 0x00	; 0
     432:	2a 81       	ldd	r18, Y+2	; 0x02
     434:	3b 81       	ldd	r19, Y+3	; 0x03
     436:	f9 01       	movw	r30, r18
     438:	20 81       	ld	r18, Z
     43a:	31 81       	ldd	r19, Z+1	; 0x01
     43c:	36 95       	lsr	r19
     43e:	27 95       	ror	r18
     440:	36 95       	lsr	r19
     442:	27 95       	ror	r18
     444:	36 95       	lsr	r19
     446:	27 95       	ror	r18
     448:	fc 01       	movw	r30, r24
     44a:	20 83       	st	Z, r18
     44c:	82 ef       	ldi	r24, 0xF2	; 242
     44e:	90 e0       	ldi	r25, 0x00	; 0
     450:	2a 81       	ldd	r18, Y+2	; 0x02
     452:	3b 81       	ldd	r19, Y+3	; 0x03
     454:	f9 01       	movw	r30, r18
     456:	20 81       	ld	r18, Z
     458:	31 81       	ldd	r19, Z+1	; 0x01
     45a:	22 95       	swap	r18
     45c:	22 0f       	add	r18, r18
     45e:	20 7e       	andi	r18, 0xE0	; 224
     460:	fc 01       	movw	r30, r24
     462:	20 83       	st	Z, r18
     464:	81 ef       	ldi	r24, 0xF1	; 241
     466:	90 e0       	ldi	r25, 0x00	; 0
     468:	fc 01       	movw	r30, r24
     46a:	10 82       	st	Z, r1
     46c:	80 ef       	ldi	r24, 0xF0	; 240
     46e:	90 e0       	ldi	r25, 0x00	; 0
     470:	fc 01       	movw	r30, r24
     472:	10 82       	st	Z, r1
     474:	87 ef       	ldi	r24, 0xF7	; 247
     476:	90 e0       	ldi	r25, 0x00	; 0
     478:	fc 01       	movw	r30, r24
     47a:	10 82       	st	Z, r1
     47c:	86 ef       	ldi	r24, 0xF6	; 246
     47e:	90 e0       	ldi	r25, 0x00	; 0
     480:	fc 01       	movw	r30, r24
     482:	10 82       	st	Z, r1
     484:	85 ef       	ldi	r24, 0xF5	; 245
     486:	90 e0       	ldi	r25, 0x00	; 0
     488:	fc 01       	movw	r30, r24
     48a:	10 82       	st	Z, r1
     48c:	84 ef       	ldi	r24, 0xF4	; 244
     48e:	90 e0       	ldi	r25, 0x00	; 0
     490:	fc 01       	movw	r30, r24
     492:	10 82       	st	Z, r1
     494:	8e ee       	ldi	r24, 0xEE	; 238
     496:	90 e0       	ldi	r25, 0x00	; 0
     498:	fc 01       	movw	r30, r24
     49a:	10 82       	st	Z, r1
     49c:	8f ee       	ldi	r24, 0xEF	; 239
     49e:	90 e0       	ldi	r25, 0x00	; 0
     4a0:	28 e4       	ldi	r18, 0x48	; 72
     4a2:	fc 01       	movw	r30, r24
     4a4:	20 83       	st	Z, r18
     4a6:	8e ee       	ldi	r24, 0xEE	; 238
     4a8:	90 e0       	ldi	r25, 0x00	; 0
     4aa:	fc 01       	movw	r30, r24
     4ac:	10 82       	st	Z, r1
     4ae:	00 00       	nop
     4b0:	0f 90       	pop	r0
     4b2:	0f 90       	pop	r0
     4b4:	0f 90       	pop	r0
     4b6:	0f 90       	pop	r0
     4b8:	0f 90       	pop	r0
     4ba:	df 91       	pop	r29
     4bc:	cf 91       	pop	r28
     4be:	08 95       	ret

000004c0 <can_init_messages>:
struct CAN_MOB can_AMS2_mob;
	uint8_t AMS2_databytes[8];
struct CAN_MOB can_AMS3_mob;
	uint8_t AMS3_databytes[8];

void can_init_messages(){
     4c0:	cf 93       	push	r28
     4c2:	df 93       	push	r29
     4c4:	cd b7       	in	r28, 0x3d	; 61
     4c6:	de b7       	in	r29, 0x3e	; 62
	
	//can_SWC_mob.mob_id = 0x800;
	//can_SWC_mob.mob_idmask = 0xffff;
	//can_SWC_mob.mob_number = 0;
	
	can_Fusebox0_mob.mob_id = 0x600;
     4c8:	80 e0       	ldi	r24, 0x00	; 0
     4ca:	96 e0       	ldi	r25, 0x06	; 6
     4cc:	90 93 77 02 	sts	0x0277, r25	; 0x800277 <can_Fusebox0_mob+0x1>
     4d0:	80 93 76 02 	sts	0x0276, r24	; 0x800276 <can_Fusebox0_mob>
	can_Fusebox0_mob.mob_idmask = 0xffff;
     4d4:	8f ef       	ldi	r24, 0xFF	; 255
     4d6:	9f ef       	ldi	r25, 0xFF	; 255
     4d8:	90 93 79 02 	sts	0x0279, r25	; 0x800279 <can_Fusebox0_mob+0x3>
     4dc:	80 93 78 02 	sts	0x0278, r24	; 0x800278 <can_Fusebox0_mob+0x2>
	can_Fusebox0_mob.mob_number = 1;
     4e0:	81 e0       	ldi	r24, 0x01	; 1
     4e2:	80 93 7a 02 	sts	0x027A, r24	; 0x80027a <can_Fusebox0_mob+0x4>
	
	can_Fusebox0_mob.mob_id = 0x601;
     4e6:	81 e0       	ldi	r24, 0x01	; 1
     4e8:	96 e0       	ldi	r25, 0x06	; 6
     4ea:	90 93 77 02 	sts	0x0277, r25	; 0x800277 <can_Fusebox0_mob+0x1>
     4ee:	80 93 76 02 	sts	0x0276, r24	; 0x800276 <can_Fusebox0_mob>
	can_Fusebox0_mob.mob_idmask = 0xffff;
     4f2:	8f ef       	ldi	r24, 0xFF	; 255
     4f4:	9f ef       	ldi	r25, 0xFF	; 255
     4f6:	90 93 79 02 	sts	0x0279, r25	; 0x800279 <can_Fusebox0_mob+0x3>
     4fa:	80 93 78 02 	sts	0x0278, r24	; 0x800278 <can_Fusebox0_mob+0x2>
	can_Fusebox0_mob.mob_number = 2;
     4fe:	82 e0       	ldi	r24, 0x02	; 2
     500:	80 93 7a 02 	sts	0x027A, r24	; 0x80027a <can_Fusebox0_mob+0x4>
	
	can_SHR0_mob.mob_id = 0x400;
     504:	80 e0       	ldi	r24, 0x00	; 0
     506:	94 e0       	ldi	r25, 0x04	; 4
     508:	90 93 84 02 	sts	0x0284, r25	; 0x800284 <can_SHR0_mob+0x1>
     50c:	80 93 83 02 	sts	0x0283, r24	; 0x800283 <can_SHR0_mob>
	can_SHR0_mob.mob_idmask = 0xffff;
     510:	8f ef       	ldi	r24, 0xFF	; 255
     512:	9f ef       	ldi	r25, 0xFF	; 255
     514:	90 93 86 02 	sts	0x0286, r25	; 0x800286 <can_SHR0_mob+0x3>
     518:	80 93 85 02 	sts	0x0285, r24	; 0x800285 <can_SHR0_mob+0x2>
	can_SHR0_mob.mob_number = 3;
     51c:	83 e0       	ldi	r24, 0x03	; 3
     51e:	80 93 87 02 	sts	0x0287, r24	; 0x800287 <can_SHR0_mob+0x4>
	
	can_SHL0_mob.mob_id = 0x410;
     522:	80 e1       	ldi	r24, 0x10	; 16
     524:	94 e0       	ldi	r25, 0x04	; 4
     526:	90 93 96 02 	sts	0x0296, r25	; 0x800296 <can_SHL0_mob+0x1>
     52a:	80 93 95 02 	sts	0x0295, r24	; 0x800295 <can_SHL0_mob>
	can_SHL0_mob.mob_idmask = 0xffff;
     52e:	8f ef       	ldi	r24, 0xFF	; 255
     530:	9f ef       	ldi	r25, 0xFF	; 255
     532:	90 93 98 02 	sts	0x0298, r25	; 0x800298 <can_SHL0_mob+0x3>
     536:	80 93 97 02 	sts	0x0297, r24	; 0x800297 <can_SHL0_mob+0x2>
	can_SHL0_mob.mob_number = 4;
     53a:	84 e0       	ldi	r24, 0x04	; 4
     53c:	80 93 99 02 	sts	0x0299, r24	; 0x800299 <can_SHL0_mob+0x4>
	
	can_SHB0_mob.mob_id = 0x420;
     540:	80 e2       	ldi	r24, 0x20	; 32
     542:	94 e0       	ldi	r25, 0x04	; 4
     544:	90 93 ec 02 	sts	0x02EC, r25	; 0x8002ec <can_SHB0_mob+0x1>
     548:	80 93 eb 02 	sts	0x02EB, r24	; 0x8002eb <can_SHB0_mob>
	can_SHB0_mob.mob_idmask = 0xffff;
     54c:	8f ef       	ldi	r24, 0xFF	; 255
     54e:	9f ef       	ldi	r25, 0xFF	; 255
     550:	90 93 ee 02 	sts	0x02EE, r25	; 0x8002ee <can_SHB0_mob+0x3>
     554:	80 93 ed 02 	sts	0x02ED, r24	; 0x8002ed <can_SHB0_mob+0x2>
	can_SHB0_mob.mob_number = 5;
     558:	85 e0       	ldi	r24, 0x05	; 5
     55a:	80 93 ef 02 	sts	0x02EF, r24	; 0x8002ef <can_SHB0_mob+0x4>
	
	can_Logger0_mob.mob_id = 0x799;
     55e:	89 e9       	ldi	r24, 0x99	; 153
     560:	97 e0       	ldi	r25, 0x07	; 7
     562:	90 93 bd 02 	sts	0x02BD, r25	; 0x8002bd <can_Logger0_mob+0x1>
     566:	80 93 bc 02 	sts	0x02BC, r24	; 0x8002bc <can_Logger0_mob>
	can_Logger0_mob.mob_idmask = 0xffff;
     56a:	8f ef       	ldi	r24, 0xFF	; 255
     56c:	9f ef       	ldi	r25, 0xFF	; 255
     56e:	90 93 bf 02 	sts	0x02BF, r25	; 0x8002bf <can_Logger0_mob+0x3>
     572:	80 93 be 02 	sts	0x02BE, r24	; 0x8002be <can_Logger0_mob+0x2>
	can_Logger0_mob.mob_number = 6;
     576:	86 e0       	ldi	r24, 0x06	; 6
     578:	80 93 c0 02 	sts	0x02C0, r24	; 0x8002c0 <can_Logger0_mob+0x4>
	
	can_Logger1_mob.mob_id = 0x798;
     57c:	88 e9       	ldi	r24, 0x98	; 152
     57e:	97 e0       	ldi	r25, 0x07	; 7
     580:	90 93 a3 02 	sts	0x02A3, r25	; 0x8002a3 <can_Logger1_mob+0x1>
     584:	80 93 a2 02 	sts	0x02A2, r24	; 0x8002a2 <can_Logger1_mob>
	can_Logger1_mob.mob_idmask = 0xffff;
     588:	8f ef       	ldi	r24, 0xFF	; 255
     58a:	9f ef       	ldi	r25, 0xFF	; 255
     58c:	90 93 a5 02 	sts	0x02A5, r25	; 0x8002a5 <can_Logger1_mob+0x3>
     590:	80 93 a4 02 	sts	0x02A4, r24	; 0x8002a4 <can_Logger1_mob+0x2>
	can_Logger1_mob.mob_number = 7;
     594:	87 e0       	ldi	r24, 0x07	; 7
     596:	80 93 a6 02 	sts	0x02A6, r24	; 0x8002a6 <can_Logger1_mob+0x4>
		
	can_Logger2_mob.mob_id = 0x797;
     59a:	87 e9       	ldi	r24, 0x97	; 151
     59c:	97 e0       	ldi	r25, 0x07	; 7
     59e:	90 93 5a 02 	sts	0x025A, r25	; 0x80025a <can_Logger2_mob+0x1>
     5a2:	80 93 59 02 	sts	0x0259, r24	; 0x800259 <can_Logger2_mob>
	can_Logger2_mob.mob_idmask = 0xffff;
     5a6:	8f ef       	ldi	r24, 0xFF	; 255
     5a8:	9f ef       	ldi	r25, 0xFF	; 255
     5aa:	90 93 5c 02 	sts	0x025C, r25	; 0x80025c <can_Logger2_mob+0x3>
     5ae:	80 93 5b 02 	sts	0x025B, r24	; 0x80025b <can_Logger2_mob+0x2>
	can_Logger2_mob.mob_number = 10;
     5b2:	8a e0       	ldi	r24, 0x0A	; 10
     5b4:	80 93 5d 02 	sts	0x025D, r24	; 0x80025d <can_Logger2_mob+0x4>
	
	can_DIC0_mob.mob_id = 0x500;
     5b8:	80 e0       	ldi	r24, 0x00	; 0
     5ba:	95 e0       	ldi	r25, 0x05	; 5
     5bc:	90 93 fe 02 	sts	0x02FE, r25	; 0x8002fe <can_DIC0_mob+0x1>
     5c0:	80 93 fd 02 	sts	0x02FD, r24	; 0x8002fd <can_DIC0_mob>
	can_DIC0_mob.mob_idmask = 0xffff;
     5c4:	8f ef       	ldi	r24, 0xFF	; 255
     5c6:	9f ef       	ldi	r25, 0xFF	; 255
     5c8:	90 93 00 03 	sts	0x0300, r25	; 0x800300 <can_DIC0_mob+0x3>
     5cc:	80 93 ff 02 	sts	0x02FF, r24	; 0x8002ff <can_DIC0_mob+0x2>
	can_DIC0_mob.mob_number = 11;
     5d0:	8b e0       	ldi	r24, 0x0B	; 11
     5d2:	80 93 01 03 	sts	0x0301, r24	; 0x800301 <can_DIC0_mob+0x4>
	
	can_AMS0_mob.mob_id = 0x200;
     5d6:	80 e0       	ldi	r24, 0x00	; 0
     5d8:	92 e0       	ldi	r25, 0x02	; 2
     5da:	90 93 03 03 	sts	0x0303, r25	; 0x800303 <can_AMS0_mob+0x1>
     5de:	80 93 02 03 	sts	0x0302, r24	; 0x800302 <can_AMS0_mob>
	can_AMS0_mob.mob_idmask = 0xffff;
     5e2:	8f ef       	ldi	r24, 0xFF	; 255
     5e4:	9f ef       	ldi	r25, 0xFF	; 255
     5e6:	90 93 05 03 	sts	0x0305, r25	; 0x800305 <can_AMS0_mob+0x3>
     5ea:	80 93 04 03 	sts	0x0304, r24	; 0x800304 <can_AMS0_mob+0x2>
	can_AMS0_mob.mob_number = 12;
     5ee:	8c e0       	ldi	r24, 0x0C	; 12
     5f0:	80 93 06 03 	sts	0x0306, r24	; 0x800306 <can_AMS0_mob+0x4>
	
	can_AMS1_mob.mob_id = 0x201;
     5f4:	81 e0       	ldi	r24, 0x01	; 1
     5f6:	92 e0       	ldi	r25, 0x02	; 2
     5f8:	90 93 c2 02 	sts	0x02C2, r25	; 0x8002c2 <can_AMS1_mob+0x1>
     5fc:	80 93 c1 02 	sts	0x02C1, r24	; 0x8002c1 <can_AMS1_mob>
	can_AMS1_mob.mob_idmask = 0xffff;
     600:	8f ef       	ldi	r24, 0xFF	; 255
     602:	9f ef       	ldi	r25, 0xFF	; 255
     604:	90 93 c4 02 	sts	0x02C4, r25	; 0x8002c4 <can_AMS1_mob+0x3>
     608:	80 93 c3 02 	sts	0x02C3, r24	; 0x8002c3 <can_AMS1_mob+0x2>
	can_AMS1_mob.mob_number = 13;
     60c:	8d e0       	ldi	r24, 0x0D	; 13
     60e:	80 93 c5 02 	sts	0x02C5, r24	; 0x8002c5 <can_AMS1_mob+0x4>
	
	can_AMS2_mob.mob_id = 0x202;
     612:	82 e0       	ldi	r24, 0x02	; 2
     614:	92 e0       	ldi	r25, 0x02	; 2
     616:	90 93 f9 02 	sts	0x02F9, r25	; 0x8002f9 <can_AMS2_mob+0x1>
     61a:	80 93 f8 02 	sts	0x02F8, r24	; 0x8002f8 <can_AMS2_mob>
	can_AMS2_mob.mob_idmask = 0xffff;
     61e:	8f ef       	ldi	r24, 0xFF	; 255
     620:	9f ef       	ldi	r25, 0xFF	; 255
     622:	90 93 fb 02 	sts	0x02FB, r25	; 0x8002fb <can_AMS2_mob+0x3>
     626:	80 93 fa 02 	sts	0x02FA, r24	; 0x8002fa <can_AMS2_mob+0x2>
	can_AMS2_mob.mob_number = 14;
     62a:	8e e0       	ldi	r24, 0x0E	; 14
     62c:	80 93 fc 02 	sts	0x02FC, r24	; 0x8002fc <can_AMS2_mob+0x4>
	
	can_AMS3_mob.mob_id = 0x203;
     630:	83 e0       	ldi	r24, 0x03	; 3
     632:	92 e0       	ldi	r25, 0x02	; 2
     634:	90 93 89 02 	sts	0x0289, r25	; 0x800289 <can_AMS3_mob+0x1>
     638:	80 93 88 02 	sts	0x0288, r24	; 0x800288 <can_AMS3_mob>
	can_AMS3_mob.mob_idmask = 0xffff;
     63c:	8f ef       	ldi	r24, 0xFF	; 255
     63e:	9f ef       	ldi	r25, 0xFF	; 255
     640:	90 93 8b 02 	sts	0x028B, r25	; 0x80028b <can_AMS3_mob+0x3>
     644:	80 93 8a 02 	sts	0x028A, r24	; 0x80028a <can_AMS3_mob+0x2>
	can_AMS3_mob.mob_number = 15;	
     648:	8f e0       	ldi	r24, 0x0F	; 15
     64a:	80 93 8c 02 	sts	0x028C, r24	; 0x80028c <can_AMS3_mob+0x4>
	
}	
     64e:	00 00       	nop
     650:	df 91       	pop	r29
     652:	cf 91       	pop	r28
     654:	08 95       	ret

00000656 <CAN_recieve>:

void CAN_recieve(){
     656:	cf 93       	push	r28
     658:	df 93       	push	r29
     65a:	cd b7       	in	r28, 0x3d	; 61
     65c:	de b7       	in	r29, 0x3e	; 62
	
	can_rx(&can_SWC_mob, SWC_databytes);
     65e:	60 ef       	ldi	r22, 0xF0	; 240
     660:	72 e0       	ldi	r23, 0x02	; 2
     662:	86 ee       	ldi	r24, 0xE6	; 230
     664:	92 e0       	ldi	r25, 0x02	; 2
     666:	fa dd       	rcall	.-1036   	; 0x25c <can_rx>
	can_rx(&can_Fusebox0_mob, Fusebox0_databytes);
     668:	66 ed       	ldi	r22, 0xD6	; 214
     66a:	72 e0       	ldi	r23, 0x02	; 2
     66c:	86 e7       	ldi	r24, 0x76	; 118
     66e:	92 e0       	ldi	r25, 0x02	; 2
     670:	f5 dd       	rcall	.-1046   	; 0x25c <can_rx>
	can_rx(&can_Fusebox1_mob, Fusebox1_databytes);
     672:	6e ec       	ldi	r22, 0xCE	; 206
     674:	72 e0       	ldi	r23, 0x02	; 2
     676:	8f ea       	ldi	r24, 0xAF	; 175
     678:	92 e0       	ldi	r25, 0x02	; 2
     67a:	f0 dd       	rcall	.-1056   	; 0x25c <can_rx>
	can_rx(&can_SHR0_mob, SHR0_databytes);
     67c:	6a e9       	ldi	r22, 0x9A	; 154
     67e:	72 e0       	ldi	r23, 0x02	; 2
     680:	83 e8       	ldi	r24, 0x83	; 131
     682:	92 e0       	ldi	r25, 0x02	; 2
     684:	eb dd       	rcall	.-1066   	; 0x25c <can_rx>
	can_rx(&can_SHL0_mob, SHL0_databytes);
     686:	67 ea       	ldi	r22, 0xA7	; 167
     688:	72 e0       	ldi	r23, 0x02	; 2
     68a:	85 e9       	ldi	r24, 0x95	; 149
     68c:	92 e0       	ldi	r25, 0x02	; 2
     68e:	e6 dd       	rcall	.-1076   	; 0x25c <can_rx>
	can_rx(&can_SHB0_mob, SHB0_databytes);
     690:	64 eb       	ldi	r22, 0xB4	; 180
     692:	72 e0       	ldi	r23, 0x02	; 2
     694:	8b ee       	ldi	r24, 0xEB	; 235
     696:	92 e0       	ldi	r25, 0x02	; 2
     698:	e1 dd       	rcall	.-1086   	; 0x25c <can_rx>
	can_rx(&can_Logger0_mob, Logger0_databytes);
     69a:	6e ed       	ldi	r22, 0xDE	; 222
     69c:	72 e0       	ldi	r23, 0x02	; 2
     69e:	8c eb       	ldi	r24, 0xBC	; 188
     6a0:	92 e0       	ldi	r25, 0x02	; 2
     6a2:	dc dd       	rcall	.-1096   	; 0x25c <can_rx>
	can_rx(&can_Logger1_mob, Logger1_databytes);
     6a4:	61 e5       	ldi	r22, 0x51	; 81
     6a6:	72 e0       	ldi	r23, 0x02	; 2
     6a8:	82 ea       	ldi	r24, 0xA2	; 162
     6aa:	92 e0       	ldi	r25, 0x02	; 2
     6ac:	d7 dd       	rcall	.-1106   	; 0x25c <can_rx>
	can_rx(&can_Logger2_mob, Logger2_databytes);
     6ae:	6e e5       	ldi	r22, 0x5E	; 94
     6b0:	72 e0       	ldi	r23, 0x02	; 2
     6b2:	89 e5       	ldi	r24, 0x59	; 89
     6b4:	92 e0       	ldi	r25, 0x02	; 2
     6b6:	d2 dd       	rcall	.-1116   	; 0x25c <can_rx>
	can_rx(&can_AMS0_mob, AMS0_databytes);
     6b8:	6d e8       	ldi	r22, 0x8D	; 141
     6ba:	72 e0       	ldi	r23, 0x02	; 2
     6bc:	82 e0       	ldi	r24, 0x02	; 2
     6be:	93 e0       	ldi	r25, 0x03	; 3
     6c0:	cd dd       	rcall	.-1126   	; 0x25c <can_rx>
	can_rx(&can_AMS1_mob, AMS1_databytes);
     6c2:	6e e6       	ldi	r22, 0x6E	; 110
     6c4:	72 e0       	ldi	r23, 0x02	; 2
     6c6:	81 ec       	ldi	r24, 0xC1	; 193
     6c8:	92 e0       	ldi	r25, 0x02	; 2
     6ca:	c8 dd       	rcall	.-1136   	; 0x25c <can_rx>
	can_rx(&can_AMS2_mob, AMS2_databytes);
     6cc:	6b e7       	ldi	r22, 0x7B	; 123
     6ce:	72 e0       	ldi	r23, 0x02	; 2
     6d0:	88 ef       	ldi	r24, 0xF8	; 248
     6d2:	92 e0       	ldi	r25, 0x02	; 2
     6d4:	c3 dd       	rcall	.-1146   	; 0x25c <can_rx>
	can_rx(&can_AMS3_mob, AMS3_databytes);
     6d6:	66 ec       	ldi	r22, 0xC6	; 198
     6d8:	72 e0       	ldi	r23, 0x02	; 2
     6da:	88 e8       	ldi	r24, 0x88	; 136
     6dc:	92 e0       	ldi	r25, 0x02	; 2
     6de:	be dd       	rcall	.-1156   	; 0x25c <can_rx>
     6e0:	66 e6       	ldi	r22, 0x66	; 102
	
	can_tx(&can_DIC0_mob, DIC0_databytes);
     6e2:	72 e0       	ldi	r23, 0x02	; 2
     6e4:	8d ef       	ldi	r24, 0xFD	; 253
     6e6:	92 e0       	ldi	r25, 0x02	; 2
     6e8:	58 de       	rcall	.-848    	; 0x39a <can_tx>
     6ea:	00 00       	nop
     6ec:	df 91       	pop	r29
	
}
     6ee:	cf 91       	pop	r28
     6f0:	08 95       	ret

000006f2 <CAN_put_data>:
     6f2:	cf 93       	push	r28
     6f4:	df 93       	push	r29

void CAN_put_data(){
     6f6:	cd b7       	in	r28, 0x3d	; 61
     6f8:	de b7       	in	r29, 0x3e	; 62
		// Testdata comment when display is in car
		
		SWC_databytes[0] = 0;
     6fa:	10 92 f0 02 	sts	0x02F0, r1	; 0x8002f0 <SWC_databytes>
		SWC_databytes[1] = 1;
     6fe:	81 e0       	ldi	r24, 0x01	; 1
     700:	80 93 f1 02 	sts	0x02F1, r24	; 0x8002f1 <SWC_databytes+0x1>
		Logger0_databytes[0] = 42;
*/
		
		
		
	Rotary_Encoder_Right = SWC_databytes[0];
     704:	80 91 f0 02 	lds	r24, 0x02F0	; 0x8002f0 <SWC_databytes>
     708:	80 93 d2 01 	sts	0x01D2, r24	; 0x8001d2 <__data_end>
	Rotary_Encoder_Left = SWC_databytes[1];
     70c:	80 91 f1 02 	lds	r24, 0x02F1	; 0x8002f1 <SWC_databytes+0x1>
     710:	80 93 d3 01 	sts	0x01D3, r24	; 0x8001d3 <Rotary_Encoder_Left>
	dsp_mde = Rotary_Encoder_Right%4;
     714:	80 91 d2 01 	lds	r24, 0x01D2	; 0x8001d2 <__data_end>
     718:	83 70       	andi	r24, 0x03	; 3
     71a:	80 93 32 02 	sts	0x0232, r24	; 0x800232 <dsp_mde>
	BrakeBias = 0;
     71e:	10 92 de 01 	sts	0x01DE, r1	; 0x8001de <BrakeBias>

	APPS1 = (SHR0_databytes[1] << 8 | SHR0_databytes[0])/10;
     722:	80 91 9b 02 	lds	r24, 0x029B	; 0x80029b <SHR0_databytes+0x1>
     726:	88 2f       	mov	r24, r24
     728:	90 e0       	ldi	r25, 0x00	; 0
     72a:	38 2f       	mov	r19, r24
     72c:	22 27       	eor	r18, r18
     72e:	80 91 9a 02 	lds	r24, 0x029A	; 0x80029a <SHR0_databytes>
     732:	88 2f       	mov	r24, r24
     734:	90 e0       	ldi	r25, 0x00	; 0
     736:	82 2b       	or	r24, r18
     738:	93 2b       	or	r25, r19
     73a:	2a e0       	ldi	r18, 0x0A	; 10
     73c:	30 e0       	ldi	r19, 0x00	; 0
     73e:	b9 01       	movw	r22, r18
     740:	0e 94 cc 14 	call	0x2998	; 0x2998 <__divmodhi4>
     744:	cb 01       	movw	r24, r22
     746:	80 93 df 01 	sts	0x01DF, r24	; 0x8001df <APPS1>
	APPS2 = (SHR0_databytes[3] << 8 | SHR0_databytes[2])/10;
     74a:	80 91 9d 02 	lds	r24, 0x029D	; 0x80029d <SHR0_databytes+0x3>
     74e:	88 2f       	mov	r24, r24
     750:	90 e0       	ldi	r25, 0x00	; 0
     752:	38 2f       	mov	r19, r24
     754:	22 27       	eor	r18, r18
     756:	80 91 9c 02 	lds	r24, 0x029C	; 0x80029c <SHR0_databytes+0x2>
     75a:	88 2f       	mov	r24, r24
     75c:	90 e0       	ldi	r25, 0x00	; 0
     75e:	82 2b       	or	r24, r18
     760:	93 2b       	or	r25, r19
     762:	2a e0       	ldi	r18, 0x0A	; 10
     764:	30 e0       	ldi	r19, 0x00	; 0
     766:	b9 01       	movw	r22, r18
     768:	0e 94 cc 14 	call	0x2998	; 0x2998 <__divmodhi4>
     76c:	cb 01       	movw	r24, r22
     76e:	80 93 e0 01 	sts	0x01E0, r24	; 0x8001e0 <APPS2>
	
	BPF = (SHL0_databytes[1] << 8 | SHL0_databytes[0])/10;
     772:	80 91 a8 02 	lds	r24, 0x02A8	; 0x8002a8 <SHL0_databytes+0x1>
     776:	88 2f       	mov	r24, r24
     778:	90 e0       	ldi	r25, 0x00	; 0
     77a:	38 2f       	mov	r19, r24
     77c:	22 27       	eor	r18, r18
     77e:	80 91 a7 02 	lds	r24, 0x02A7	; 0x8002a7 <SHL0_databytes>
     782:	88 2f       	mov	r24, r24
     784:	90 e0       	ldi	r25, 0x00	; 0
     786:	82 2b       	or	r24, r18
     788:	93 2b       	or	r25, r19
     78a:	2a e0       	ldi	r18, 0x0A	; 10
     78c:	30 e0       	ldi	r19, 0x00	; 0
     78e:	b9 01       	movw	r22, r18
     790:	0e 94 cc 14 	call	0x2998	; 0x2998 <__divmodhi4>
     794:	cb 01       	movw	r24, r22
     796:	80 93 e1 01 	sts	0x01E1, r24	; 0x8001e1 <BPF>
	BPR = (SHL0_databytes[3] << 8 | SHL0_databytes[2])/10;
     79a:	80 91 aa 02 	lds	r24, 0x02AA	; 0x8002aa <SHL0_databytes+0x3>
     79e:	88 2f       	mov	r24, r24
     7a0:	90 e0       	ldi	r25, 0x00	; 0
     7a2:	38 2f       	mov	r19, r24
     7a4:	22 27       	eor	r18, r18
     7a6:	80 91 a9 02 	lds	r24, 0x02A9	; 0x8002a9 <SHL0_databytes+0x2>
     7aa:	88 2f       	mov	r24, r24
     7ac:	90 e0       	ldi	r25, 0x00	; 0
     7ae:	82 2b       	or	r24, r18
     7b0:	93 2b       	or	r25, r19
     7b2:	2a e0       	ldi	r18, 0x0A	; 10
     7b4:	30 e0       	ldi	r19, 0x00	; 0
     7b6:	b9 01       	movw	r22, r18
     7b8:	0e 94 cc 14 	call	0x2998	; 0x2998 <__divmodhi4>
     7bc:	cb 01       	movw	r24, r22
     7be:	80 93 e2 01 	sts	0x01E2, r24	; 0x8001e2 <BPR>
	CLT = (SHB0_databytes[1] << 8 | SHB0_databytes[0])/10;
     7c2:	80 91 b5 02 	lds	r24, 0x02B5	; 0x8002b5 <SHB0_databytes+0x1>
     7c6:	88 2f       	mov	r24, r24
     7c8:	90 e0       	ldi	r25, 0x00	; 0
     7ca:	38 2f       	mov	r19, r24
     7cc:	22 27       	eor	r18, r18
     7ce:	80 91 b4 02 	lds	r24, 0x02B4	; 0x8002b4 <SHB0_databytes>
     7d2:	88 2f       	mov	r24, r24
     7d4:	90 e0       	ldi	r25, 0x00	; 0
     7d6:	82 2b       	or	r24, r18
     7d8:	93 2b       	or	r25, r19
     7da:	2a e0       	ldi	r18, 0x0A	; 10
     7dc:	30 e0       	ldi	r19, 0x00	; 0
     7de:	b9 01       	movw	r22, r18
     7e0:	0e 94 cc 14 	call	0x2998	; 0x2998 <__divmodhi4>
     7e4:	cb 01       	movw	r24, r22
     7e6:	90 93 dd 01 	sts	0x01DD, r25	; 0x8001dd <CLT+0x1>
     7ea:	80 93 dc 01 	sts	0x01DC, r24	; 0x8001dc <CLT>

	LVSVoltage = (Fusebox0_databytes[1] << 8 | Fusebox0_databytes[0])/40;
     7ee:	80 91 d7 02 	lds	r24, 0x02D7	; 0x8002d7 <Fusebox0_databytes+0x1>
     7f2:	88 2f       	mov	r24, r24
     7f4:	90 e0       	ldi	r25, 0x00	; 0
     7f6:	38 2f       	mov	r19, r24
     7f8:	22 27       	eor	r18, r18
     7fa:	80 91 d6 02 	lds	r24, 0x02D6	; 0x8002d6 <Fusebox0_databytes>
     7fe:	88 2f       	mov	r24, r24
     800:	90 e0       	ldi	r25, 0x00	; 0
     802:	82 2b       	or	r24, r18
     804:	93 2b       	or	r25, r19
     806:	28 e2       	ldi	r18, 0x28	; 40
     808:	30 e0       	ldi	r19, 0x00	; 0
     80a:	b9 01       	movw	r22, r18
     80c:	0e 94 cc 14 	call	0x2998	; 0x2998 <__divmodhi4>
     810:	cb 01       	movw	r24, r22
     812:	90 93 db 01 	sts	0x01DB, r25	; 0x8001db <LVSVoltage+0x1>
     816:	80 93 da 01 	sts	0x01DA, r24	; 0x8001da <LVSVoltage>
	SDCIFB = (Fusebox1_databytes[1] << 8 | Fusebox1_databytes[0]);
     81a:	80 91 cf 02 	lds	r24, 0x02CF	; 0x8002cf <Fusebox1_databytes+0x1>
     81e:	88 2f       	mov	r24, r24
     820:	90 e0       	ldi	r25, 0x00	; 0
     822:	98 2f       	mov	r25, r24
     824:	88 27       	eor	r24, r24
     826:	98 2f       	mov	r25, r24
     828:	80 91 ce 02 	lds	r24, 0x02CE	; 0x8002ce <Fusebox1_databytes>
     82c:	89 2b       	or	r24, r25
     82e:	80 93 e3 01 	sts	0x01E3, r24	; 0x8001e3 <SDCIFB>
	FRO = (Fusebox1_databytes[3] << 8 | Fusebox1_databytes[2]);
     832:	80 91 d1 02 	lds	r24, 0x02D1	; 0x8002d1 <Fusebox1_databytes+0x3>
     836:	88 2f       	mov	r24, r24
     838:	90 e0       	ldi	r25, 0x00	; 0
     83a:	38 2f       	mov	r19, r24
     83c:	22 27       	eor	r18, r18
     83e:	80 91 d0 02 	lds	r24, 0x02D0	; 0x8002d0 <Fusebox1_databytes+0x2>
     842:	88 2f       	mov	r24, r24
     844:	90 e0       	ldi	r25, 0x00	; 0
     846:	82 2b       	or	r24, r18
     848:	93 2b       	or	r25, r19
     84a:	90 93 e5 01 	sts	0x01E5, r25	; 0x8001e5 <FRO+0x1>
     84e:	80 93 e4 01 	sts	0x01E4, r24	; 0x8001e4 <FRO>
	
	AMS_ERR = AMS0_databytes[0];
     852:	80 91 8d 02 	lds	r24, 0x028D	; 0x80028d <AMS0_databytes>
     856:	80 93 e6 01 	sts	0x01E6, r24	; 0x8001e6 <AMS_ERR>
	ERR_info = (AMS0_databytes[2] << 8 | AMS0_databytes[1]);
     85a:	80 91 8f 02 	lds	r24, 0x028F	; 0x80028f <AMS0_databytes+0x2>
     85e:	88 2f       	mov	r24, r24
     860:	90 e0       	ldi	r25, 0x00	; 0
     862:	38 2f       	mov	r19, r24
     864:	22 27       	eor	r18, r18
     866:	80 91 8e 02 	lds	r24, 0x028E	; 0x80028e <AMS0_databytes+0x1>
     86a:	88 2f       	mov	r24, r24
     86c:	90 e0       	ldi	r25, 0x00	; 0
     86e:	82 2b       	or	r24, r18
     870:	93 2b       	or	r25, r19
     872:	90 93 e8 01 	sts	0x01E8, r25	; 0x8001e8 <ERR_info+0x1>
     876:	80 93 e7 01 	sts	0x01E7, r24	; 0x8001e7 <ERR_info>
	IMD_ERR = AMS0_databytes[4];
     87a:	80 91 91 02 	lds	r24, 0x0291	; 0x800291 <AMS0_databytes+0x4>
     87e:	80 93 e9 01 	sts	0x01E9, r24	; 0x8001e9 <IMD_ERR>
	TSVoltage = (AMS1_databytes[1] << 8 | AMS1_databytes[0])/6;
     882:	80 91 6f 02 	lds	r24, 0x026F	; 0x80026f <AMS1_databytes+0x1>
     886:	88 2f       	mov	r24, r24
     888:	90 e0       	ldi	r25, 0x00	; 0
     88a:	38 2f       	mov	r19, r24
     88c:	22 27       	eor	r18, r18
     88e:	80 91 6e 02 	lds	r24, 0x026E	; 0x80026e <AMS1_databytes>
     892:	88 2f       	mov	r24, r24
     894:	90 e0       	ldi	r25, 0x00	; 0
     896:	82 2b       	or	r24, r18
     898:	93 2b       	or	r25, r19
     89a:	26 e0       	ldi	r18, 0x06	; 6
     89c:	30 e0       	ldi	r19, 0x00	; 0
     89e:	b9 01       	movw	r22, r18
     8a0:	0e 94 cc 14 	call	0x2998	; 0x2998 <__divmodhi4>
     8a4:	cb 01       	movw	r24, r22
     8a6:	90 93 d5 01 	sts	0x01D5, r25	; 0x8001d5 <TSVoltage+0x1>
     8aa:	80 93 d4 01 	sts	0x01D4, r24	; 0x8001d4 <TSVoltage>
	SOC = (AMS1_databytes[5] << 8 | AMS1_databytes[4]);
     8ae:	80 91 73 02 	lds	r24, 0x0273	; 0x800273 <AMS1_databytes+0x5>
     8b2:	88 2f       	mov	r24, r24
     8b4:	90 e0       	ldi	r25, 0x00	; 0
     8b6:	38 2f       	mov	r19, r24
     8b8:	22 27       	eor	r18, r18
     8ba:	80 91 72 02 	lds	r24, 0x0272	; 0x800272 <AMS1_databytes+0x4>
     8be:	88 2f       	mov	r24, r24
     8c0:	90 e0       	ldi	r25, 0x00	; 0
     8c2:	82 2b       	or	r24, r18
     8c4:	93 2b       	or	r25, r19
     8c6:	90 93 d9 01 	sts	0x01D9, r25	; 0x8001d9 <SOC+0x1>
     8ca:	80 93 d8 01 	sts	0x01D8, r24	; 0x8001d8 <SOC>
	AccumulatorTemperature = (AMS2_databytes[7] << 8 | AMS2_databytes[6]);
     8ce:	80 91 82 02 	lds	r24, 0x0282	; 0x800282 <AMS2_databytes+0x7>
     8d2:	88 2f       	mov	r24, r24
     8d4:	90 e0       	ldi	r25, 0x00	; 0
     8d6:	38 2f       	mov	r19, r24
     8d8:	22 27       	eor	r18, r18
     8da:	80 91 81 02 	lds	r24, 0x0281	; 0x800281 <AMS2_databytes+0x6>
     8de:	88 2f       	mov	r24, r24
     8e0:	90 e0       	ldi	r25, 0x00	; 0
     8e2:	82 2b       	or	r24, r18
     8e4:	93 2b       	or	r25, r19
     8e6:	90 93 d7 01 	sts	0x01D7, r25	; 0x8001d7 <AccumulatorTemperature+0x1>
     8ea:	80 93 d6 01 	sts	0x01D6, r24	; 0x8001d6 <AccumulatorTemperature>
	TS_RDY = AMS3_databytes[0];
     8ee:	80 91 c6 02 	lds	r24, 0x02C6	; 0x8002c6 <AMS3_databytes>
     8f2:	80 93 ea 01 	sts	0x01EA, r24	; 0x8001ea <TS_RDY>

	//For some weird reason the length of the variable that gets shifted seems to matter, atleast in this usecase, with for e.g BPF etc it works fine which may be becouse we are actually only transmitting an 8 bit value
	//what happens is we shift an 8bit uint by 8 to the left and want to save it in an 32bit uint, we put for e.g 135 in and should get 34560. instead we are getting 4294965720 which is definitly also not an 8bit value
	//i do not know what is happening here but shifting a variable beyond its own limit seems to do weird stuff. therefore this stupid hacky fix with putting the 8bit integers into 32bit integer and than whacking it together
	
	Laptime_1 = Logger0_databytes[1];
     8f6:	80 91 df 02 	lds	r24, 0x02DF	; 0x8002df <Logger0_databytes+0x1>
     8fa:	80 93 f0 01 	sts	0x01F0, r24	; 0x8001f0 <Laptime_1>
	Laptime_2 = Logger0_databytes[2];
     8fe:	80 91 e0 02 	lds	r24, 0x02E0	; 0x8002e0 <Logger0_databytes+0x2>
     902:	88 2f       	mov	r24, r24
     904:	90 e0       	ldi	r25, 0x00	; 0
     906:	90 93 f2 01 	sts	0x01F2, r25	; 0x8001f2 <Laptime_2+0x1>
     90a:	80 93 f1 01 	sts	0x01F1, r24	; 0x8001f1 <Laptime_2>
	Laptime_3 = Logger0_databytes[3];
     90e:	80 91 e1 02 	lds	r24, 0x02E1	; 0x8002e1 <Logger0_databytes+0x3>
     912:	88 2f       	mov	r24, r24
     914:	90 e0       	ldi	r25, 0x00	; 0
     916:	a0 e0       	ldi	r26, 0x00	; 0
     918:	b0 e0       	ldi	r27, 0x00	; 0
     91a:	80 93 f3 01 	sts	0x01F3, r24	; 0x8001f3 <Laptime_3>
     91e:	90 93 f4 01 	sts	0x01F4, r25	; 0x8001f4 <Laptime_3+0x1>
     922:	a0 93 f5 01 	sts	0x01F5, r26	; 0x8001f5 <Laptime_3+0x2>
     926:	b0 93 f6 01 	sts	0x01F6, r27	; 0x8001f6 <Laptime_3+0x3>
	Laptime_4 = Logger0_databytes[4];
     92a:	80 91 e2 02 	lds	r24, 0x02E2	; 0x8002e2 <Logger0_databytes+0x4>
     92e:	88 2f       	mov	r24, r24
     930:	90 e0       	ldi	r25, 0x00	; 0
     932:	a0 e0       	ldi	r26, 0x00	; 0
     934:	b0 e0       	ldi	r27, 0x00	; 0
     936:	80 93 f7 01 	sts	0x01F7, r24	; 0x8001f7 <Laptime_4>
     93a:	90 93 f8 01 	sts	0x01F8, r25	; 0x8001f8 <Laptime_4+0x1>
     93e:	a0 93 f9 01 	sts	0x01F9, r26	; 0x8001f9 <Laptime_4+0x2>
     942:	b0 93 fa 01 	sts	0x01FA, r27	; 0x8001fa <Laptime_4+0x3>
	
	Laptime = Laptime_1 | Laptime_2 << 8 | Laptime_3 << 16 | Laptime_4 << 24;
     946:	80 91 f0 01 	lds	r24, 0x01F0	; 0x8001f0 <Laptime_1>
     94a:	28 2f       	mov	r18, r24
     94c:	30 e0       	ldi	r19, 0x00	; 0
     94e:	80 91 f1 01 	lds	r24, 0x01F1	; 0x8001f1 <Laptime_2>
     952:	90 91 f2 01 	lds	r25, 0x01F2	; 0x8001f2 <Laptime_2+0x1>
     956:	98 2f       	mov	r25, r24
     958:	88 27       	eor	r24, r24
     95a:	82 2b       	or	r24, r18
     95c:	93 2b       	or	r25, r19
     95e:	9c 01       	movw	r18, r24
     960:	40 e0       	ldi	r20, 0x00	; 0
     962:	50 e0       	ldi	r21, 0x00	; 0
     964:	80 91 f3 01 	lds	r24, 0x01F3	; 0x8001f3 <Laptime_3>
     968:	90 91 f4 01 	lds	r25, 0x01F4	; 0x8001f4 <Laptime_3+0x1>
     96c:	a0 91 f5 01 	lds	r26, 0x01F5	; 0x8001f5 <Laptime_3+0x2>
     970:	b0 91 f6 01 	lds	r27, 0x01F6	; 0x8001f6 <Laptime_3+0x3>
     974:	dc 01       	movw	r26, r24
     976:	99 27       	eor	r25, r25
     978:	88 27       	eor	r24, r24
     97a:	28 2b       	or	r18, r24
     97c:	39 2b       	or	r19, r25
     97e:	4a 2b       	or	r20, r26
     980:	5b 2b       	or	r21, r27
     982:	80 91 f7 01 	lds	r24, 0x01F7	; 0x8001f7 <Laptime_4>
     986:	90 91 f8 01 	lds	r25, 0x01F8	; 0x8001f8 <Laptime_4+0x1>
     98a:	a0 91 f9 01 	lds	r26, 0x01F9	; 0x8001f9 <Laptime_4+0x2>
     98e:	b0 91 fa 01 	lds	r27, 0x01FA	; 0x8001fa <Laptime_4+0x3>
     992:	b8 2f       	mov	r27, r24
     994:	aa 27       	eor	r26, r26
     996:	99 27       	eor	r25, r25
     998:	88 27       	eor	r24, r24
     99a:	82 2b       	or	r24, r18
     99c:	93 2b       	or	r25, r19
     99e:	a4 2b       	or	r26, r20
     9a0:	b5 2b       	or	r27, r21
     9a2:	80 93 ec 01 	sts	0x01EC, r24	; 0x8001ec <Laptime>
     9a6:	90 93 ed 01 	sts	0x01ED, r25	; 0x8001ed <Laptime+0x1>
     9aa:	a0 93 ee 01 	sts	0x01EE, r26	; 0x8001ee <Laptime+0x2>
     9ae:	b0 93 ef 01 	sts	0x01EF, r27	; 0x8001ef <Laptime+0x3>
	
	Besttime_1 = Logger1_databytes[0];
     9b2:	80 91 51 02 	lds	r24, 0x0251	; 0x800251 <Logger1_databytes>
     9b6:	80 93 ff 01 	sts	0x01FF, r24	; 0x8001ff <Besttime_1>
	Besttime_2 = Logger1_databytes[1];
     9ba:	80 91 52 02 	lds	r24, 0x0252	; 0x800252 <Logger1_databytes+0x1>
     9be:	88 2f       	mov	r24, r24
     9c0:	90 e0       	ldi	r25, 0x00	; 0
     9c2:	90 93 01 02 	sts	0x0201, r25	; 0x800201 <Besttime_2+0x1>
     9c6:	80 93 00 02 	sts	0x0200, r24	; 0x800200 <Besttime_2>
	Besttime_3 = Logger1_databytes[2];
     9ca:	80 91 53 02 	lds	r24, 0x0253	; 0x800253 <Logger1_databytes+0x2>
     9ce:	88 2f       	mov	r24, r24
     9d0:	90 e0       	ldi	r25, 0x00	; 0
     9d2:	a0 e0       	ldi	r26, 0x00	; 0
     9d4:	b0 e0       	ldi	r27, 0x00	; 0
     9d6:	80 93 02 02 	sts	0x0202, r24	; 0x800202 <Besttime_3>
     9da:	90 93 03 02 	sts	0x0203, r25	; 0x800203 <Besttime_3+0x1>
     9de:	a0 93 04 02 	sts	0x0204, r26	; 0x800204 <Besttime_3+0x2>
     9e2:	b0 93 05 02 	sts	0x0205, r27	; 0x800205 <Besttime_3+0x3>
	Besttime_4 = Logger1_databytes[3];
     9e6:	80 91 54 02 	lds	r24, 0x0254	; 0x800254 <Logger1_databytes+0x3>
     9ea:	88 2f       	mov	r24, r24
     9ec:	90 e0       	ldi	r25, 0x00	; 0
     9ee:	a0 e0       	ldi	r26, 0x00	; 0
     9f0:	b0 e0       	ldi	r27, 0x00	; 0
     9f2:	80 93 06 02 	sts	0x0206, r24	; 0x800206 <Besttime_4>
     9f6:	90 93 07 02 	sts	0x0207, r25	; 0x800207 <Besttime_4+0x1>
     9fa:	a0 93 08 02 	sts	0x0208, r26	; 0x800208 <Besttime_4+0x2>
     9fe:	b0 93 09 02 	sts	0x0209, r27	; 0x800209 <Besttime_4+0x3>
	
	Besttime = Besttime_1 | Besttime_2 << 8 | Besttime_3 << 16 | Besttime_4 << 24;
     a02:	80 91 ff 01 	lds	r24, 0x01FF	; 0x8001ff <Besttime_1>
     a06:	28 2f       	mov	r18, r24
     a08:	30 e0       	ldi	r19, 0x00	; 0
     a0a:	80 91 00 02 	lds	r24, 0x0200	; 0x800200 <Besttime_2>
     a0e:	90 91 01 02 	lds	r25, 0x0201	; 0x800201 <Besttime_2+0x1>
     a12:	98 2f       	mov	r25, r24
     a14:	88 27       	eor	r24, r24
     a16:	82 2b       	or	r24, r18
     a18:	93 2b       	or	r25, r19
     a1a:	9c 01       	movw	r18, r24
     a1c:	40 e0       	ldi	r20, 0x00	; 0
     a1e:	50 e0       	ldi	r21, 0x00	; 0
     a20:	80 91 02 02 	lds	r24, 0x0202	; 0x800202 <Besttime_3>
     a24:	90 91 03 02 	lds	r25, 0x0203	; 0x800203 <Besttime_3+0x1>
     a28:	a0 91 04 02 	lds	r26, 0x0204	; 0x800204 <Besttime_3+0x2>
     a2c:	b0 91 05 02 	lds	r27, 0x0205	; 0x800205 <Besttime_3+0x3>
     a30:	dc 01       	movw	r26, r24
     a32:	99 27       	eor	r25, r25
     a34:	88 27       	eor	r24, r24
     a36:	28 2b       	or	r18, r24
     a38:	39 2b       	or	r19, r25
     a3a:	4a 2b       	or	r20, r26
     a3c:	5b 2b       	or	r21, r27
     a3e:	80 91 06 02 	lds	r24, 0x0206	; 0x800206 <Besttime_4>
     a42:	90 91 07 02 	lds	r25, 0x0207	; 0x800207 <Besttime_4+0x1>
     a46:	a0 91 08 02 	lds	r26, 0x0208	; 0x800208 <Besttime_4+0x2>
     a4a:	b0 91 09 02 	lds	r27, 0x0209	; 0x800209 <Besttime_4+0x3>
     a4e:	b8 2f       	mov	r27, r24
     a50:	aa 27       	eor	r26, r26
     a52:	99 27       	eor	r25, r25
     a54:	88 27       	eor	r24, r24
     a56:	82 2b       	or	r24, r18
     a58:	93 2b       	or	r25, r19
     a5a:	a4 2b       	or	r26, r20
     a5c:	b5 2b       	or	r27, r21
     a5e:	80 93 fb 01 	sts	0x01FB, r24	; 0x8001fb <Besttime>
     a62:	90 93 fc 01 	sts	0x01FC, r25	; 0x8001fc <Besttime+0x1>
     a66:	a0 93 fd 01 	sts	0x01FD, r26	; 0x8001fd <Besttime+0x2>
     a6a:	b0 93 fe 01 	sts	0x01FE, r27	; 0x8001fe <Besttime+0x3>
	
	Pred_time_1 = Logger1_databytes[4];
     a6e:	80 91 55 02 	lds	r24, 0x0255	; 0x800255 <Logger1_databytes+0x4>
     a72:	80 93 0e 02 	sts	0x020E, r24	; 0x80020e <Pred_time_1>
	Pred_time_2 = Logger1_databytes[5];
     a76:	80 91 56 02 	lds	r24, 0x0256	; 0x800256 <Logger1_databytes+0x5>
     a7a:	88 2f       	mov	r24, r24
     a7c:	90 e0       	ldi	r25, 0x00	; 0
     a7e:	90 93 10 02 	sts	0x0210, r25	; 0x800210 <Pred_time_2+0x1>
     a82:	80 93 0f 02 	sts	0x020F, r24	; 0x80020f <Pred_time_2>
	Pred_time_3 = Logger1_databytes[6];
     a86:	80 91 57 02 	lds	r24, 0x0257	; 0x800257 <Logger1_databytes+0x6>
     a8a:	88 2f       	mov	r24, r24
     a8c:	90 e0       	ldi	r25, 0x00	; 0
     a8e:	a0 e0       	ldi	r26, 0x00	; 0
     a90:	b0 e0       	ldi	r27, 0x00	; 0
     a92:	80 93 11 02 	sts	0x0211, r24	; 0x800211 <Pred_time_3>
     a96:	90 93 12 02 	sts	0x0212, r25	; 0x800212 <Pred_time_3+0x1>
     a9a:	a0 93 13 02 	sts	0x0213, r26	; 0x800213 <Pred_time_3+0x2>
     a9e:	b0 93 14 02 	sts	0x0214, r27	; 0x800214 <Pred_time_3+0x3>
	Pred_time_4 = Logger1_databytes[7];
     aa2:	80 91 58 02 	lds	r24, 0x0258	; 0x800258 <Logger1_databytes+0x7>
     aa6:	88 2f       	mov	r24, r24
     aa8:	90 e0       	ldi	r25, 0x00	; 0
     aaa:	a0 e0       	ldi	r26, 0x00	; 0
     aac:	b0 e0       	ldi	r27, 0x00	; 0
     aae:	80 93 15 02 	sts	0x0215, r24	; 0x800215 <Pred_time_4>
     ab2:	90 93 16 02 	sts	0x0216, r25	; 0x800216 <Pred_time_4+0x1>
     ab6:	a0 93 17 02 	sts	0x0217, r26	; 0x800217 <Pred_time_4+0x2>
     aba:	b0 93 18 02 	sts	0x0218, r27	; 0x800218 <Pred_time_4+0x3>
	
	Pred_time = Pred_time_1 | Pred_time_2 << 8 | Pred_time_3 << 16 | Pred_time_4 << 24;
     abe:	80 91 0e 02 	lds	r24, 0x020E	; 0x80020e <Pred_time_1>
     ac2:	28 2f       	mov	r18, r24
     ac4:	30 e0       	ldi	r19, 0x00	; 0
     ac6:	80 91 0f 02 	lds	r24, 0x020F	; 0x80020f <Pred_time_2>
     aca:	90 91 10 02 	lds	r25, 0x0210	; 0x800210 <Pred_time_2+0x1>
     ace:	98 2f       	mov	r25, r24
     ad0:	88 27       	eor	r24, r24
     ad2:	82 2b       	or	r24, r18
     ad4:	93 2b       	or	r25, r19
     ad6:	9c 01       	movw	r18, r24
     ad8:	40 e0       	ldi	r20, 0x00	; 0
     ada:	50 e0       	ldi	r21, 0x00	; 0
     adc:	80 91 11 02 	lds	r24, 0x0211	; 0x800211 <Pred_time_3>
     ae0:	90 91 12 02 	lds	r25, 0x0212	; 0x800212 <Pred_time_3+0x1>
     ae4:	a0 91 13 02 	lds	r26, 0x0213	; 0x800213 <Pred_time_3+0x2>
     ae8:	b0 91 14 02 	lds	r27, 0x0214	; 0x800214 <Pred_time_3+0x3>
     aec:	dc 01       	movw	r26, r24
     aee:	99 27       	eor	r25, r25
     af0:	88 27       	eor	r24, r24
     af2:	28 2b       	or	r18, r24
     af4:	39 2b       	or	r19, r25
     af6:	4a 2b       	or	r20, r26
     af8:	5b 2b       	or	r21, r27
     afa:	80 91 15 02 	lds	r24, 0x0215	; 0x800215 <Pred_time_4>
     afe:	90 91 16 02 	lds	r25, 0x0216	; 0x800216 <Pred_time_4+0x1>
     b02:	a0 91 17 02 	lds	r26, 0x0217	; 0x800217 <Pred_time_4+0x2>
     b06:	b0 91 18 02 	lds	r27, 0x0218	; 0x800218 <Pred_time_4+0x3>
     b0a:	b8 2f       	mov	r27, r24
     b0c:	aa 27       	eor	r26, r26
     b0e:	99 27       	eor	r25, r25
     b10:	88 27       	eor	r24, r24
     b12:	82 2b       	or	r24, r18
     b14:	93 2b       	or	r25, r19
     b16:	a4 2b       	or	r26, r20
     b18:	b5 2b       	or	r27, r21
     b1a:	80 93 0a 02 	sts	0x020A, r24	; 0x80020a <Pred_time>
     b1e:	90 93 0b 02 	sts	0x020B, r25	; 0x80020b <Pred_time+0x1>
     b22:	a0 93 0c 02 	sts	0x020C, r26	; 0x80020c <Pred_time+0x2>
     b26:	b0 93 0d 02 	sts	0x020D, r27	; 0x80020d <Pred_time+0x3>
	
	ODO = Logger0_databytes[6] << 8 | Logger0_databytes[5];
     b2a:	80 91 e4 02 	lds	r24, 0x02E4	; 0x8002e4 <Logger0_databytes+0x6>
     b2e:	88 2f       	mov	r24, r24
     b30:	90 e0       	ldi	r25, 0x00	; 0
     b32:	38 2f       	mov	r19, r24
     b34:	22 27       	eor	r18, r18
     b36:	80 91 e3 02 	lds	r24, 0x02E3	; 0x8002e3 <Logger0_databytes+0x5>
     b3a:	88 2f       	mov	r24, r24
     b3c:	90 e0       	ldi	r25, 0x00	; 0
     b3e:	82 2b       	or	r24, r18
     b40:	93 2b       	or	r25, r19
     b42:	90 93 1a 02 	sts	0x021A, r25	; 0x80021a <ODO+0x1>
     b46:	80 93 19 02 	sts	0x0219, r24	; 0x800219 <ODO>
	GPS_Speed = Logger2_databytes[7] << 8 | Logger2_databytes[6];
     b4a:	80 91 65 02 	lds	r24, 0x0265	; 0x800265 <Logger2_databytes+0x7>
     b4e:	88 2f       	mov	r24, r24
     b50:	90 e0       	ldi	r25, 0x00	; 0
     b52:	38 2f       	mov	r19, r24
     b54:	22 27       	eor	r18, r18
     b56:	80 91 64 02 	lds	r24, 0x0264	; 0x800264 <Logger2_databytes+0x6>
     b5a:	88 2f       	mov	r24, r24
     b5c:	90 e0       	ldi	r25, 0x00	; 0
     b5e:	82 2b       	or	r24, r18
     b60:	93 2b       	or	r25, r19
     b62:	90 93 1c 02 	sts	0x021C, r25	; 0x80021c <GPS_Speed+0x1>
     b66:	80 93 1b 02 	sts	0x021B, r24	; 0x80021b <GPS_Speed>
	LapNumber = Logger0_databytes[0];	
     b6a:	80 91 de 02 	lds	r24, 0x02DE	; 0x8002de <Logger0_databytes>
     b6e:	80 93 eb 01 	sts	0x01EB, r24	; 0x8001eb <LapNumber>
	
	DIC0_databytes[0] = LC_Active;
     b72:	80 91 3c 02 	lds	r24, 0x023C	; 0x80023c <LC_Active>
     b76:	90 91 3d 02 	lds	r25, 0x023D	; 0x80023d <difftime>
     b7a:	80 93 66 02 	sts	0x0266, r24	; 0x800266 <DIC0_databytes>
	
     b7e:	00 00       	nop
     b80:	df 91       	pop	r29
     b82:	cf 91       	pop	r28
     b84:	08 95       	ret

00000b86 <calc_BB>:
     b86:	ef 92       	push	r14
     b88:	ff 92       	push	r15
     b8a:	0f 93       	push	r16
     b8c:	1f 93       	push	r17
     b8e:	cf 93       	push	r28
     b90:	df 93       	push	r29
     b92:	00 d0       	rcall	.+0      	; 0xb94 <calc_BB+0xe>
     b94:	cd b7       	in	r28, 0x3d	; 61
     b96:	de b7       	in	r29, 0x3e	; 62
     b98:	89 83       	std	Y+1, r24	; 0x01
     b9a:	6a 83       	std	Y+2, r22	; 0x02
     b9c:	89 81       	ldd	r24, Y+1	; 0x01
     b9e:	8a 30       	cpi	r24, 0x0A	; 10
     ba0:	08 f4       	brcc	.+2      	; 0xba4 <calc_BB+0x1e>
     ba2:	59 c0       	rjmp	.+178    	; 0xc56 <calc_BB+0xd0>
     ba4:	89 81       	ldd	r24, Y+1	; 0x01
     ba6:	28 2f       	mov	r18, r24
     ba8:	30 e0       	ldi	r19, 0x00	; 0
     baa:	8a 81       	ldd	r24, Y+2	; 0x02
     bac:	88 2f       	mov	r24, r24
     bae:	90 e0       	ldi	r25, 0x00	; 0
     bb0:	82 0f       	add	r24, r18
     bb2:	93 1f       	adc	r25, r19
     bb4:	09 2e       	mov	r0, r25
     bb6:	00 0c       	add	r0, r0
     bb8:	aa 0b       	sbc	r26, r26
     bba:	bb 0b       	sbc	r27, r27
     bbc:	bc 01       	movw	r22, r24
     bbe:	cd 01       	movw	r24, r26
     bc0:	0e 94 c9 13 	call	0x2792	; 0x2792 <__floatsisf>
     bc4:	dc 01       	movw	r26, r24
     bc6:	cb 01       	movw	r24, r22
     bc8:	80 93 1d 02 	sts	0x021D, r24	; 0x80021d <BB>
     bcc:	90 93 1e 02 	sts	0x021E, r25	; 0x80021e <BB+0x1>
     bd0:	a0 93 1f 02 	sts	0x021F, r26	; 0x80021f <BB+0x2>
     bd4:	b0 93 20 02 	sts	0x0220, r27	; 0x800220 <BB+0x3>
     bd8:	89 81       	ldd	r24, Y+1	; 0x01
     bda:	88 2f       	mov	r24, r24
     bdc:	90 e0       	ldi	r25, 0x00	; 0
     bde:	09 2e       	mov	r0, r25
     be0:	00 0c       	add	r0, r0
     be2:	aa 0b       	sbc	r26, r26
     be4:	bb 0b       	sbc	r27, r27
     be6:	bc 01       	movw	r22, r24
     be8:	cd 01       	movw	r24, r26
     bea:	0e 94 c9 13 	call	0x2792	; 0x2792 <__floatsisf>
     bee:	7b 01       	movw	r14, r22
     bf0:	8c 01       	movw	r16, r24
     bf2:	80 91 1d 02 	lds	r24, 0x021D	; 0x80021d <BB>
     bf6:	90 91 1e 02 	lds	r25, 0x021E	; 0x80021e <BB+0x1>
     bfa:	a0 91 1f 02 	lds	r26, 0x021F	; 0x80021f <BB+0x2>
     bfe:	b0 91 20 02 	lds	r27, 0x0220	; 0x800220 <BB+0x3>
     c02:	9c 01       	movw	r18, r24
     c04:	ad 01       	movw	r20, r26
     c06:	c8 01       	movw	r24, r16
     c08:	b7 01       	movw	r22, r14
     c0a:	0e 94 33 13 	call	0x2666	; 0x2666 <__divsf3>
     c0e:	dc 01       	movw	r26, r24
     c10:	cb 01       	movw	r24, r22
     c12:	80 93 1d 02 	sts	0x021D, r24	; 0x80021d <BB>
     c16:	90 93 1e 02 	sts	0x021E, r25	; 0x80021e <BB+0x1>
     c1a:	a0 93 1f 02 	sts	0x021F, r26	; 0x80021f <BB+0x2>
     c1e:	b0 93 20 02 	sts	0x0220, r27	; 0x800220 <BB+0x3>
     c22:	80 91 1d 02 	lds	r24, 0x021D	; 0x80021d <BB>
     c26:	90 91 1e 02 	lds	r25, 0x021E	; 0x80021e <BB+0x1>
     c2a:	a0 91 1f 02 	lds	r26, 0x021F	; 0x80021f <BB+0x2>
     c2e:	b0 91 20 02 	lds	r27, 0x0220	; 0x800220 <BB+0x3>
     c32:	20 e0       	ldi	r18, 0x00	; 0
     c34:	30 e0       	ldi	r19, 0x00	; 0
     c36:	48 ec       	ldi	r20, 0xC8	; 200
     c38:	52 e4       	ldi	r21, 0x42	; 66
     c3a:	bc 01       	movw	r22, r24
     c3c:	cd 01       	movw	r24, r26
     c3e:	0e 94 55 14 	call	0x28aa	; 0x28aa <__mulsf3>
     c42:	dc 01       	movw	r26, r24
     c44:	cb 01       	movw	r24, r22
     c46:	80 93 1d 02 	sts	0x021D, r24	; 0x80021d <BB>
     c4a:	90 93 1e 02 	sts	0x021E, r25	; 0x80021e <BB+0x1>
     c4e:	a0 93 1f 02 	sts	0x021F, r26	; 0x80021f <BB+0x2>
     c52:	b0 93 20 02 	sts	0x0220, r27	; 0x800220 <BB+0x3>
     c56:	80 91 1d 02 	lds	r24, 0x021D	; 0x80021d <BB>
     c5a:	90 91 1e 02 	lds	r25, 0x021E	; 0x80021e <BB+0x1>
     c5e:	a0 91 1f 02 	lds	r26, 0x021F	; 0x80021f <BB+0x2>
     c62:	b0 91 20 02 	lds	r27, 0x0220	; 0x800220 <BB+0x3>
     c66:	bc 01       	movw	r22, r24
     c68:	cd 01       	movw	r24, r26
     c6a:	0e 94 9b 13 	call	0x2736	; 0x2736 <__fixunssfsi>
     c6e:	dc 01       	movw	r26, r24
     c70:	cb 01       	movw	r24, r22
     c72:	0f 90       	pop	r0
     c74:	0f 90       	pop	r0
     c76:	df 91       	pop	r29
     c78:	cf 91       	pop	r28
     c7a:	1f 91       	pop	r17
     c7c:	0f 91       	pop	r16
     c7e:	ff 90       	pop	r15
     c80:	ef 90       	pop	r14
     c82:	08 95       	ret

00000c84 <string_to_digit>:
     c84:	cf 93       	push	r28
     c86:	df 93       	push	r29
     c88:	cd b7       	in	r28, 0x3d	; 61
     c8a:	de b7       	in	r29, 0x3e	; 62
     c8c:	27 97       	sbiw	r28, 0x07	; 7
     c8e:	0f b6       	in	r0, 0x3f	; 63
     c90:	f8 94       	cli
     c92:	de bf       	out	0x3e, r29	; 62
     c94:	0f be       	out	0x3f, r0	; 63
     c96:	cd bf       	out	0x3d, r28	; 61
     c98:	8b 83       	std	Y+3, r24	; 0x03
     c9a:	7d 83       	std	Y+5, r23	; 0x05
     c9c:	6c 83       	std	Y+4, r22	; 0x04
     c9e:	4e 83       	std	Y+6, r20	; 0x06
     ca0:	2f 83       	std	Y+7, r18	; 0x07
     ca2:	1a 82       	std	Y+2, r1	; 0x02
     ca4:	19 82       	std	Y+1, r1	; 0x01
     ca6:	2e c0       	rjmp	.+92     	; 0xd04 <string_to_digit+0x80>
     ca8:	8b 81       	ldd	r24, Y+3	; 0x03
     caa:	68 2f       	mov	r22, r24
     cac:	70 e0       	ldi	r23, 0x00	; 0
     cae:	8f 81       	ldd	r24, Y+7	; 0x07
     cb0:	28 2f       	mov	r18, r24
     cb2:	30 e0       	ldi	r19, 0x00	; 0
     cb4:	8e 81       	ldd	r24, Y+6	; 0x06
     cb6:	48 2f       	mov	r20, r24
     cb8:	50 e0       	ldi	r21, 0x00	; 0
     cba:	89 81       	ldd	r24, Y+1	; 0x01
     cbc:	9a 81       	ldd	r25, Y+2	; 0x02
     cbe:	84 0f       	add	r24, r20
     cc0:	95 1f       	adc	r25, r21
     cc2:	ec 81       	ldd	r30, Y+4	; 0x04
     cc4:	fd 81       	ldd	r31, Y+5	; 0x05
     cc6:	49 81       	ldd	r20, Y+1	; 0x01
     cc8:	5a 81       	ldd	r21, Y+2	; 0x02
     cca:	4e 0f       	add	r20, r30
     ccc:	5f 1f       	adc	r21, r31
     cce:	da 01       	movw	r26, r20
     cd0:	ec 91       	ld	r30, X
     cd2:	f4 e1       	ldi	r31, 0x14	; 20
     cd4:	f2 9f       	mul	r31, r18
     cd6:	a0 01       	movw	r20, r0
     cd8:	f3 9f       	mul	r31, r19
     cda:	50 0d       	add	r21, r0
     cdc:	11 24       	eor	r1, r1
     cde:	f0 e5       	ldi	r31, 0x50	; 80
     ce0:	f6 9f       	mul	r31, r22
     ce2:	90 01       	movw	r18, r0
     ce4:	f7 9f       	mul	r31, r23
     ce6:	30 0d       	add	r19, r0
     ce8:	11 24       	eor	r1, r1
     cea:	24 0f       	add	r18, r20
     cec:	35 1f       	adc	r19, r21
     cee:	82 0f       	add	r24, r18
     cf0:	93 1f       	adc	r25, r19
     cf2:	89 5f       	subi	r24, 0xF9	; 249
     cf4:	9c 4f       	sbci	r25, 0xFC	; 252
     cf6:	dc 01       	movw	r26, r24
     cf8:	ec 93       	st	X, r30
     cfa:	89 81       	ldd	r24, Y+1	; 0x01
     cfc:	9a 81       	ldd	r25, Y+2	; 0x02
     cfe:	01 96       	adiw	r24, 0x01	; 1
     d00:	9a 83       	std	Y+2, r25	; 0x02
     d02:	89 83       	std	Y+1, r24	; 0x01
     d04:	8c 81       	ldd	r24, Y+4	; 0x04
     d06:	9d 81       	ldd	r25, Y+5	; 0x05
     d08:	0e 94 10 15 	call	0x2a20	; 0x2a20 <strlen>
     d0c:	9c 01       	movw	r18, r24
     d0e:	89 81       	ldd	r24, Y+1	; 0x01
     d10:	9a 81       	ldd	r25, Y+2	; 0x02
     d12:	82 17       	cp	r24, r18
     d14:	93 07       	cpc	r25, r19
     d16:	40 f2       	brcs	.-112    	; 0xca8 <string_to_digit+0x24>
     d18:	00 00       	nop
     d1a:	27 96       	adiw	r28, 0x07	; 7
     d1c:	0f b6       	in	r0, 0x3f	; 63
     d1e:	f8 94       	cli
     d20:	de bf       	out	0x3e, r29	; 62
     d22:	0f be       	out	0x3f, r0	; 63
     d24:	cd bf       	out	0x3d, r28	; 61
     d26:	df 91       	pop	r29
     d28:	cf 91       	pop	r28
     d2a:	08 95       	ret

00000d2c <num_to_digit>:
     d2c:	ef 92       	push	r14
     d2e:	0f 93       	push	r16
     d30:	1f 93       	push	r17
     d32:	cf 93       	push	r28
     d34:	df 93       	push	r29
     d36:	cd b7       	in	r28, 0x3d	; 61
     d38:	de b7       	in	r29, 0x3e	; 62
     d3a:	62 97       	sbiw	r28, 0x12	; 18
     d3c:	0f b6       	in	r0, 0x3f	; 63
     d3e:	f8 94       	cli
     d40:	de bf       	out	0x3e, r29	; 62
     d42:	0f be       	out	0x3f, r0	; 63
     d44:	cd bf       	out	0x3d, r28	; 61
     d46:	8a 87       	std	Y+10, r24	; 0x0a
     d48:	7c 87       	std	Y+12, r23	; 0x0c
     d4a:	6b 87       	std	Y+11, r22	; 0x0b
     d4c:	4d 87       	std	Y+13, r20	; 0x0d
     d4e:	2e 87       	std	Y+14, r18	; 0x0e
     d50:	0f 87       	std	Y+15, r16	; 0x0f
     d52:	e8 8a       	std	Y+16, r14	; 0x10
     d54:	4d b7       	in	r20, 0x3d	; 61
     d56:	5e b7       	in	r21, 0x3e	; 62
     d58:	5a 8b       	std	Y+18, r21	; 0x12
     d5a:	49 8b       	std	Y+17, r20	; 0x11
     d5c:	8d b7       	in	r24, 0x3d	; 61
     d5e:	9e b7       	in	r25, 0x3e	; 62
     d60:	8c 01       	movw	r16, r24
     d62:	2e 85       	ldd	r18, Y+14	; 0x0e
     d64:	82 2f       	mov	r24, r18
     d66:	90 e0       	ldi	r25, 0x00	; 0
     d68:	01 97       	sbiw	r24, 0x01	; 1
     d6a:	9e 83       	std	Y+6, r25	; 0x06
     d6c:	8d 83       	std	Y+5, r24	; 0x05
     d6e:	82 2f       	mov	r24, r18
     d70:	90 e0       	ldi	r25, 0x00	; 0
     d72:	6d b7       	in	r22, 0x3d	; 61
     d74:	7e b7       	in	r23, 0x3e	; 62
     d76:	68 1b       	sub	r22, r24
     d78:	79 0b       	sbc	r23, r25
     d7a:	0f b6       	in	r0, 0x3f	; 63
     d7c:	f8 94       	cli
     d7e:	7e bf       	out	0x3e, r23	; 62
     d80:	0f be       	out	0x3f, r0	; 63
     d82:	6d bf       	out	0x3d, r22	; 61
     d84:	8d b7       	in	r24, 0x3d	; 61
     d86:	9e b7       	in	r25, 0x3e	; 62
     d88:	01 96       	adiw	r24, 0x01	; 1
     d8a:	98 87       	std	Y+8, r25	; 0x08
     d8c:	8f 83       	std	Y+7, r24	; 0x07
     d8e:	19 82       	std	Y+1, r1	; 0x01
     d90:	81 e0       	ldi	r24, 0x01	; 1
     d92:	8a 83       	std	Y+2, r24	; 0x02
     d94:	40 c0       	rjmp	.+128    	; 0xe16 <num_to_digit+0xea>
     d96:	4b 85       	ldd	r20, Y+11	; 0x0b
     d98:	5c 85       	ldd	r21, Y+12	; 0x0c
     d9a:	9a 01       	movw	r18, r20
     d9c:	ad ec       	ldi	r26, 0xCD	; 205
     d9e:	bc ec       	ldi	r27, 0xCC	; 204
     da0:	0e 94 01 15 	call	0x2a02	; 0x2a02 <__umulhisi3>
     da4:	96 95       	lsr	r25
     da6:	87 95       	ror	r24
     da8:	96 95       	lsr	r25
     daa:	87 95       	ror	r24
     dac:	96 95       	lsr	r25
     dae:	87 95       	ror	r24
     db0:	88 0f       	add	r24, r24
     db2:	99 1f       	adc	r25, r25
     db4:	9c 01       	movw	r18, r24
     db6:	22 0f       	add	r18, r18
     db8:	33 1f       	adc	r19, r19
     dba:	22 0f       	add	r18, r18
     dbc:	33 1f       	adc	r19, r19
     dbe:	82 0f       	add	r24, r18
     dc0:	93 1f       	adc	r25, r19
     dc2:	da 01       	movw	r26, r20
     dc4:	a8 1b       	sub	r26, r24
     dc6:	b9 0b       	sbc	r27, r25
     dc8:	cd 01       	movw	r24, r26
     dca:	89 87       	std	Y+9, r24	; 0x09
     dcc:	8e 85       	ldd	r24, Y+14	; 0x0e
     dce:	28 2f       	mov	r18, r24
     dd0:	30 e0       	ldi	r19, 0x00	; 0
     dd2:	8a 81       	ldd	r24, Y+2	; 0x02
     dd4:	88 2f       	mov	r24, r24
     dd6:	90 e0       	ldi	r25, 0x00	; 0
     dd8:	f9 01       	movw	r30, r18
     dda:	e8 1b       	sub	r30, r24
     ddc:	f9 0b       	sbc	r31, r25
     dde:	cf 01       	movw	r24, r30
     de0:	29 85       	ldd	r18, Y+9	; 0x09
     de2:	40 e3       	ldi	r20, 0x30	; 48
     de4:	42 0f       	add	r20, r18
     de6:	2f 81       	ldd	r18, Y+7	; 0x07
     de8:	38 85       	ldd	r19, Y+8	; 0x08
     dea:	82 0f       	add	r24, r18
     dec:	93 1f       	adc	r25, r19
     dee:	dc 01       	movw	r26, r24
     df0:	4c 93       	st	X, r20
     df2:	8b 85       	ldd	r24, Y+11	; 0x0b
     df4:	9c 85       	ldd	r25, Y+12	; 0x0c
     df6:	9c 01       	movw	r18, r24
     df8:	ad ec       	ldi	r26, 0xCD	; 205
     dfa:	bc ec       	ldi	r27, 0xCC	; 204
     dfc:	0e 94 01 15 	call	0x2a02	; 0x2a02 <__umulhisi3>
     e00:	96 95       	lsr	r25
     e02:	87 95       	ror	r24
     e04:	96 95       	lsr	r25
     e06:	87 95       	ror	r24
     e08:	96 95       	lsr	r25
     e0a:	87 95       	ror	r24
     e0c:	9c 87       	std	Y+12, r25	; 0x0c
     e0e:	8b 87       	std	Y+11, r24	; 0x0b
     e10:	8a 81       	ldd	r24, Y+2	; 0x02
     e12:	8f 5f       	subi	r24, 0xFF	; 255
     e14:	8a 83       	std	Y+2, r24	; 0x02
     e16:	9a 81       	ldd	r25, Y+2	; 0x02
     e18:	8e 85       	ldd	r24, Y+14	; 0x0e
     e1a:	89 17       	cp	r24, r25
     e1c:	08 f0       	brcs	.+2      	; 0xe20 <num_to_digit+0xf4>
     e1e:	bb cf       	rjmp	.-138    	; 0xd96 <num_to_digit+0x6a>
     e20:	1b 82       	std	Y+3, r1	; 0x03
     e22:	1c 82       	std	Y+4, r1	; 0x04
     e24:	c8 c0       	rjmp	.+400    	; 0xfb6 <num_to_digit+0x28a>
     e26:	8c 81       	ldd	r24, Y+4	; 0x04
     e28:	88 2f       	mov	r24, r24
     e2a:	90 e0       	ldi	r25, 0x00	; 0
     e2c:	2f 81       	ldd	r18, Y+7	; 0x07
     e2e:	38 85       	ldd	r19, Y+8	; 0x08
     e30:	82 0f       	add	r24, r18
     e32:	93 1f       	adc	r25, r19
     e34:	fc 01       	movw	r30, r24
     e36:	80 81       	ld	r24, Z
     e38:	80 33       	cpi	r24, 0x30	; 48
     e3a:	11 f0       	breq	.+4      	; 0xe40 <num_to_digit+0x114>
     e3c:	81 e0       	ldi	r24, 0x01	; 1
     e3e:	8b 83       	std	Y+3, r24	; 0x03
     e40:	61 e0       	ldi	r22, 0x01	; 1
     e42:	8b 81       	ldd	r24, Y+3	; 0x03
     e44:	88 23       	and	r24, r24
     e46:	09 f0       	breq	.+2      	; 0xe4a <num_to_digit+0x11e>
     e48:	60 e0       	ldi	r22, 0x00	; 0
     e4a:	8c 81       	ldd	r24, Y+4	; 0x04
     e4c:	28 2f       	mov	r18, r24
     e4e:	30 e0       	ldi	r19, 0x00	; 0
     e50:	8e 85       	ldd	r24, Y+14	; 0x0e
     e52:	48 2f       	mov	r20, r24
     e54:	50 e0       	ldi	r21, 0x00	; 0
     e56:	8d 85       	ldd	r24, Y+13	; 0x0d
     e58:	88 2f       	mov	r24, r24
     e5a:	90 e0       	ldi	r25, 0x00	; 0
     e5c:	da 01       	movw	r26, r20
     e5e:	a8 1b       	sub	r26, r24
     e60:	b9 0b       	sbc	r27, r25
     e62:	cd 01       	movw	r24, r26
     e64:	02 97       	sbiw	r24, 0x02	; 2
     e66:	41 e0       	ldi	r20, 0x01	; 1
     e68:	28 17       	cp	r18, r24
     e6a:	39 07       	cpc	r19, r25
     e6c:	0c f0       	brlt	.+2      	; 0xe70 <num_to_digit+0x144>
     e6e:	40 e0       	ldi	r20, 0x00	; 0
     e70:	86 2f       	mov	r24, r22
     e72:	84 23       	and	r24, r20
     e74:	88 23       	and	r24, r24
     e76:	51 f0       	breq	.+20     	; 0xe8c <num_to_digit+0x160>
     e78:	8c 81       	ldd	r24, Y+4	; 0x04
     e7a:	88 2f       	mov	r24, r24
     e7c:	90 e0       	ldi	r25, 0x00	; 0
     e7e:	2f 81       	ldd	r18, Y+7	; 0x07
     e80:	38 85       	ldd	r19, Y+8	; 0x08
     e82:	82 0f       	add	r24, r18
     e84:	93 1f       	adc	r25, r19
     e86:	20 e1       	ldi	r18, 0x10	; 16
     e88:	fc 01       	movw	r30, r24
     e8a:	20 83       	st	Z, r18
     e8c:	8c 81       	ldd	r24, Y+4	; 0x04
     e8e:	28 2f       	mov	r18, r24
     e90:	30 e0       	ldi	r19, 0x00	; 0
     e92:	8e 85       	ldd	r24, Y+14	; 0x0e
     e94:	48 2f       	mov	r20, r24
     e96:	50 e0       	ldi	r21, 0x00	; 0
     e98:	8d 85       	ldd	r24, Y+13	; 0x0d
     e9a:	88 2f       	mov	r24, r24
     e9c:	90 e0       	ldi	r25, 0x00	; 0
     e9e:	ba 01       	movw	r22, r20
     ea0:	68 1b       	sub	r22, r24
     ea2:	79 0b       	sbc	r23, r25
     ea4:	cb 01       	movw	r24, r22
     ea6:	28 17       	cp	r18, r24
     ea8:	39 07       	cpc	r19, r25
     eaa:	64 f5       	brge	.+88     	; 0xf04 <num_to_digit+0x1d8>
     eac:	8a 85       	ldd	r24, Y+10	; 0x0a
     eae:	68 2f       	mov	r22, r24
     eb0:	70 e0       	ldi	r23, 0x00	; 0
     eb2:	88 89       	ldd	r24, Y+16	; 0x10
     eb4:	28 2f       	mov	r18, r24
     eb6:	30 e0       	ldi	r19, 0x00	; 0
     eb8:	8f 85       	ldd	r24, Y+15	; 0x0f
     eba:	48 2f       	mov	r20, r24
     ebc:	50 e0       	ldi	r21, 0x00	; 0
     ebe:	8c 81       	ldd	r24, Y+4	; 0x04
     ec0:	88 2f       	mov	r24, r24
     ec2:	90 e0       	ldi	r25, 0x00	; 0
     ec4:	84 0f       	add	r24, r20
     ec6:	95 1f       	adc	r25, r21
     ec8:	4c 81       	ldd	r20, Y+4	; 0x04
     eca:	44 2f       	mov	r20, r20
     ecc:	50 e0       	ldi	r21, 0x00	; 0
     ece:	af 81       	ldd	r26, Y+7	; 0x07
     ed0:	b8 85       	ldd	r27, Y+8	; 0x08
     ed2:	4a 0f       	add	r20, r26
     ed4:	5b 1f       	adc	r21, r27
     ed6:	fa 01       	movw	r30, r20
     ed8:	a0 81       	ld	r26, Z
     eda:	b4 e1       	ldi	r27, 0x14	; 20
     edc:	b2 9f       	mul	r27, r18
     ede:	a0 01       	movw	r20, r0
     ee0:	b3 9f       	mul	r27, r19
     ee2:	50 0d       	add	r21, r0
     ee4:	11 24       	eor	r1, r1
     ee6:	b0 e5       	ldi	r27, 0x50	; 80
     ee8:	b6 9f       	mul	r27, r22
     eea:	90 01       	movw	r18, r0
     eec:	b7 9f       	mul	r27, r23
     eee:	30 0d       	add	r19, r0
     ef0:	11 24       	eor	r1, r1
     ef2:	24 0f       	add	r18, r20
     ef4:	35 1f       	adc	r19, r21
     ef6:	82 0f       	add	r24, r18
     ef8:	93 1f       	adc	r25, r19
     efa:	89 5f       	subi	r24, 0xF9	; 249
     efc:	9c 4f       	sbci	r25, 0xFC	; 252
     efe:	fc 01       	movw	r30, r24
     f00:	a0 83       	st	Z, r26
     f02:	56 c0       	rjmp	.+172    	; 0xfb0 <num_to_digit+0x284>
     f04:	89 81       	ldd	r24, Y+1	; 0x01
     f06:	88 23       	and	r24, r24
     f08:	29 f5       	brne	.+74     	; 0xf54 <num_to_digit+0x228>
     f0a:	8a 85       	ldd	r24, Y+10	; 0x0a
     f0c:	68 2f       	mov	r22, r24
     f0e:	70 e0       	ldi	r23, 0x00	; 0
     f10:	88 89       	ldd	r24, Y+16	; 0x10
     f12:	28 2f       	mov	r18, r24
     f14:	30 e0       	ldi	r19, 0x00	; 0
     f16:	8f 85       	ldd	r24, Y+15	; 0x0f
     f18:	48 2f       	mov	r20, r24
     f1a:	50 e0       	ldi	r21, 0x00	; 0
     f1c:	8c 81       	ldd	r24, Y+4	; 0x04
     f1e:	88 2f       	mov	r24, r24
     f20:	90 e0       	ldi	r25, 0x00	; 0
     f22:	84 0f       	add	r24, r20
     f24:	95 1f       	adc	r25, r21
     f26:	a4 e1       	ldi	r26, 0x14	; 20
     f28:	a2 9f       	mul	r26, r18
     f2a:	a0 01       	movw	r20, r0
     f2c:	a3 9f       	mul	r26, r19
     f2e:	50 0d       	add	r21, r0
     f30:	11 24       	eor	r1, r1
     f32:	a0 e5       	ldi	r26, 0x50	; 80
     f34:	a6 9f       	mul	r26, r22
     f36:	90 01       	movw	r18, r0
     f38:	a7 9f       	mul	r26, r23
     f3a:	30 0d       	add	r19, r0
     f3c:	11 24       	eor	r1, r1
     f3e:	24 0f       	add	r18, r20
     f40:	35 1f       	adc	r19, r21
     f42:	82 0f       	add	r24, r18
     f44:	93 1f       	adc	r25, r19
     f46:	89 5f       	subi	r24, 0xF9	; 249
     f48:	9c 4f       	sbci	r25, 0xFC	; 252
     f4a:	2e e2       	ldi	r18, 0x2E	; 46
     f4c:	dc 01       	movw	r26, r24
     f4e:	2c 93       	st	X, r18
     f50:	81 e0       	ldi	r24, 0x01	; 1
     f52:	89 83       	std	Y+1, r24	; 0x01
     f54:	8a 85       	ldd	r24, Y+10	; 0x0a
     f56:	68 2f       	mov	r22, r24
     f58:	70 e0       	ldi	r23, 0x00	; 0
     f5a:	88 89       	ldd	r24, Y+16	; 0x10
     f5c:	28 2f       	mov	r18, r24
     f5e:	30 e0       	ldi	r19, 0x00	; 0
     f60:	8f 85       	ldd	r24, Y+15	; 0x0f
     f62:	88 2f       	mov	r24, r24
     f64:	90 e0       	ldi	r25, 0x00	; 0
     f66:	ac 01       	movw	r20, r24
     f68:	4f 5f       	subi	r20, 0xFF	; 255
     f6a:	5f 4f       	sbci	r21, 0xFF	; 255
     f6c:	8c 81       	ldd	r24, Y+4	; 0x04
     f6e:	88 2f       	mov	r24, r24
     f70:	90 e0       	ldi	r25, 0x00	; 0
     f72:	84 0f       	add	r24, r20
     f74:	95 1f       	adc	r25, r21
     f76:	4c 81       	ldd	r20, Y+4	; 0x04
     f78:	44 2f       	mov	r20, r20
     f7a:	50 e0       	ldi	r21, 0x00	; 0
     f7c:	af 81       	ldd	r26, Y+7	; 0x07
     f7e:	b8 85       	ldd	r27, Y+8	; 0x08
     f80:	4a 0f       	add	r20, r26
     f82:	5b 1f       	adc	r21, r27
     f84:	fa 01       	movw	r30, r20
     f86:	a0 81       	ld	r26, Z
     f88:	b4 e1       	ldi	r27, 0x14	; 20
     f8a:	b2 9f       	mul	r27, r18
     f8c:	a0 01       	movw	r20, r0
     f8e:	b3 9f       	mul	r27, r19
     f90:	50 0d       	add	r21, r0
     f92:	11 24       	eor	r1, r1
     f94:	b0 e5       	ldi	r27, 0x50	; 80
     f96:	b6 9f       	mul	r27, r22
     f98:	90 01       	movw	r18, r0
     f9a:	b7 9f       	mul	r27, r23
     f9c:	30 0d       	add	r19, r0
     f9e:	11 24       	eor	r1, r1
     fa0:	24 0f       	add	r18, r20
     fa2:	35 1f       	adc	r19, r21
     fa4:	82 0f       	add	r24, r18
     fa6:	93 1f       	adc	r25, r19
     fa8:	89 5f       	subi	r24, 0xF9	; 249
     faa:	9c 4f       	sbci	r25, 0xFC	; 252
     fac:	fc 01       	movw	r30, r24
     fae:	a0 83       	st	Z, r26
     fb0:	8c 81       	ldd	r24, Y+4	; 0x04
     fb2:	8f 5f       	subi	r24, 0xFF	; 255
     fb4:	8c 83       	std	Y+4, r24	; 0x04
     fb6:	9c 81       	ldd	r25, Y+4	; 0x04
     fb8:	8e 85       	ldd	r24, Y+14	; 0x0e
     fba:	98 17       	cp	r25, r24
     fbc:	08 f4       	brcc	.+2      	; 0xfc0 <num_to_digit+0x294>
     fbe:	33 cf       	rjmp	.-410    	; 0xe26 <num_to_digit+0xfa>
     fc0:	0f b6       	in	r0, 0x3f	; 63
     fc2:	f8 94       	cli
     fc4:	1e bf       	out	0x3e, r17	; 62
     fc6:	0f be       	out	0x3f, r0	; 63
     fc8:	0d bf       	out	0x3d, r16	; 61
     fca:	00 00       	nop
     fcc:	49 89       	ldd	r20, Y+17	; 0x11
     fce:	5a 89       	ldd	r21, Y+18	; 0x12
     fd0:	0f b6       	in	r0, 0x3f	; 63
     fd2:	f8 94       	cli
     fd4:	5e bf       	out	0x3e, r21	; 62
     fd6:	0f be       	out	0x3f, r0	; 63
     fd8:	4d bf       	out	0x3d, r20	; 61
     fda:	62 96       	adiw	r28, 0x12	; 18
     fdc:	0f b6       	in	r0, 0x3f	; 63
     fde:	f8 94       	cli
     fe0:	de bf       	out	0x3e, r29	; 62
     fe2:	0f be       	out	0x3f, r0	; 63
     fe4:	cd bf       	out	0x3d, r28	; 61
     fe6:	df 91       	pop	r29
     fe8:	cf 91       	pop	r28
     fea:	1f 91       	pop	r17
     fec:	0f 91       	pop	r16
     fee:	ef 90       	pop	r14
     ff0:	08 95       	ret

00000ff2 <time_to_digit>:
     ff2:	0f 93       	push	r16
     ff4:	cf 93       	push	r28
     ff6:	df 93       	push	r29
     ff8:	cd b7       	in	r28, 0x3d	; 61
     ffa:	de b7       	in	r29, 0x3e	; 62
     ffc:	63 97       	sbiw	r28, 0x13	; 19
     ffe:	0f b6       	in	r0, 0x3f	; 63
    1000:	f8 94       	cli
    1002:	de bf       	out	0x3e, r29	; 62
    1004:	0f be       	out	0x3f, r0	; 63
    1006:	cd bf       	out	0x3d, r28	; 61
    1008:	8d 87       	std	Y+13, r24	; 0x0d
    100a:	4e 87       	std	Y+14, r20	; 0x0e
    100c:	5f 87       	std	Y+15, r21	; 0x0f
    100e:	68 8b       	std	Y+16, r22	; 0x10
    1010:	79 8b       	std	Y+17, r23	; 0x11
    1012:	2a 8b       	std	Y+18, r18	; 0x12
    1014:	0b 8b       	std	Y+19, r16	; 0x13
    1016:	8e 85       	ldd	r24, Y+14	; 0x0e
    1018:	9f 85       	ldd	r25, Y+15	; 0x0f
    101a:	a8 89       	ldd	r26, Y+16	; 0x10
    101c:	b9 89       	ldd	r27, Y+17	; 0x11
    101e:	28 ee       	ldi	r18, 0xE8	; 232
    1020:	33 e0       	ldi	r19, 0x03	; 3
    1022:	40 e0       	ldi	r20, 0x00	; 0
    1024:	50 e0       	ldi	r21, 0x00	; 0
    1026:	bc 01       	movw	r22, r24
    1028:	cd 01       	movw	r24, r26
    102a:	0e 94 df 14 	call	0x29be	; 0x29be <__udivmodsi4>
    102e:	dc 01       	movw	r26, r24
    1030:	cb 01       	movw	r24, r22
    1032:	9a 83       	std	Y+2, r25	; 0x02
    1034:	89 83       	std	Y+1, r24	; 0x01
    1036:	8e 85       	ldd	r24, Y+14	; 0x0e
    1038:	9f 85       	ldd	r25, Y+15	; 0x0f
    103a:	a8 89       	ldd	r26, Y+16	; 0x10
    103c:	b9 89       	ldd	r27, Y+17	; 0x11
    103e:	28 ee       	ldi	r18, 0xE8	; 232
    1040:	33 e0       	ldi	r19, 0x03	; 3
    1042:	40 e0       	ldi	r20, 0x00	; 0
    1044:	50 e0       	ldi	r21, 0x00	; 0
    1046:	bc 01       	movw	r22, r24
    1048:	cd 01       	movw	r24, r26
    104a:	0e 94 df 14 	call	0x29be	; 0x29be <__udivmodsi4>
    104e:	da 01       	movw	r26, r20
    1050:	c9 01       	movw	r24, r18
    1052:	9c 83       	std	Y+4, r25	; 0x04
    1054:	8b 83       	std	Y+3, r24	; 0x03
    1056:	8b 81       	ldd	r24, Y+3	; 0x03
    1058:	9c 81       	ldd	r25, Y+4	; 0x04
    105a:	9c 01       	movw	r18, r24
    105c:	a9 e8       	ldi	r26, 0x89	; 137
    105e:	b8 e8       	ldi	r27, 0x88	; 136
    1060:	0e 94 01 15 	call	0x2a02	; 0x2a02 <__umulhisi3>
    1064:	96 95       	lsr	r25
    1066:	87 95       	ror	r24
    1068:	92 95       	swap	r25
    106a:	82 95       	swap	r24
    106c:	8f 70       	andi	r24, 0x0F	; 15
    106e:	89 27       	eor	r24, r25
    1070:	9f 70       	andi	r25, 0x0F	; 15
    1072:	89 27       	eor	r24, r25
    1074:	9c 83       	std	Y+4, r25	; 0x04
    1076:	8b 83       	std	Y+3, r24	; 0x03
    1078:	8e 85       	ldd	r24, Y+14	; 0x0e
    107a:	9f 85       	ldd	r25, Y+15	; 0x0f
    107c:	a8 89       	ldd	r26, Y+16	; 0x10
    107e:	b9 89       	ldd	r27, Y+17	; 0x11
    1080:	28 ee       	ldi	r18, 0xE8	; 232
    1082:	33 e0       	ldi	r19, 0x03	; 3
    1084:	40 e0       	ldi	r20, 0x00	; 0
    1086:	50 e0       	ldi	r21, 0x00	; 0
    1088:	bc 01       	movw	r22, r24
    108a:	cd 01       	movw	r24, r26
    108c:	0e 94 df 14 	call	0x29be	; 0x29be <__udivmodsi4>
    1090:	da 01       	movw	r26, r20
    1092:	c9 01       	movw	r24, r18
    1094:	9e 83       	std	Y+6, r25	; 0x06
    1096:	8d 83       	std	Y+5, r24	; 0x05
    1098:	4d 81       	ldd	r20, Y+5	; 0x05
    109a:	5e 81       	ldd	r21, Y+6	; 0x06
    109c:	9a 01       	movw	r18, r20
    109e:	a9 e8       	ldi	r26, 0x89	; 137
    10a0:	b8 e8       	ldi	r27, 0x88	; 136
    10a2:	0e 94 01 15 	call	0x2a02	; 0x2a02 <__umulhisi3>
    10a6:	9c 01       	movw	r18, r24
    10a8:	36 95       	lsr	r19
    10aa:	27 95       	ror	r18
    10ac:	32 95       	swap	r19
    10ae:	22 95       	swap	r18
    10b0:	2f 70       	andi	r18, 0x0F	; 15
    10b2:	23 27       	eor	r18, r19
    10b4:	3f 70       	andi	r19, 0x0F	; 15
    10b6:	23 27       	eor	r18, r19
    10b8:	6c e3       	ldi	r22, 0x3C	; 60
    10ba:	62 9f       	mul	r22, r18
    10bc:	c0 01       	movw	r24, r0
    10be:	63 9f       	mul	r22, r19
    10c0:	90 0d       	add	r25, r0
    10c2:	11 24       	eor	r1, r1
    10c4:	9a 01       	movw	r18, r20
    10c6:	28 1b       	sub	r18, r24
    10c8:	39 0b       	sbc	r19, r25
    10ca:	c9 01       	movw	r24, r18
    10cc:	9e 83       	std	Y+6, r25	; 0x06
    10ce:	8d 83       	std	Y+5, r24	; 0x05
    10d0:	1f 82       	std	Y+7, r1	; 0x07
    10d2:	58 c0       	rjmp	.+176    	; 0x1184 <__stack+0x85>
    10d4:	49 81       	ldd	r20, Y+1	; 0x01
    10d6:	5a 81       	ldd	r21, Y+2	; 0x02
    10d8:	9a 01       	movw	r18, r20
    10da:	ad ec       	ldi	r26, 0xCD	; 205
    10dc:	bc ec       	ldi	r27, 0xCC	; 204
    10de:	0e 94 01 15 	call	0x2a02	; 0x2a02 <__umulhisi3>
    10e2:	96 95       	lsr	r25
    10e4:	87 95       	ror	r24
    10e6:	96 95       	lsr	r25
    10e8:	87 95       	ror	r24
    10ea:	96 95       	lsr	r25
    10ec:	87 95       	ror	r24
    10ee:	88 0f       	add	r24, r24
    10f0:	99 1f       	adc	r25, r25
    10f2:	9c 01       	movw	r18, r24
    10f4:	22 0f       	add	r18, r18
    10f6:	33 1f       	adc	r19, r19
    10f8:	22 0f       	add	r18, r18
    10fa:	33 1f       	adc	r19, r19
    10fc:	82 0f       	add	r24, r18
    10fe:	93 1f       	adc	r25, r19
    1100:	fa 01       	movw	r30, r20
    1102:	e8 1b       	sub	r30, r24
    1104:	f9 0b       	sbc	r31, r25
    1106:	cf 01       	movw	r24, r30
    1108:	8b 87       	std	Y+11, r24	; 0x0b
    110a:	8b 85       	ldd	r24, Y+11	; 0x0b
    110c:	80 5d       	subi	r24, 0xD0	; 208
    110e:	8b 87       	std	Y+11, r24	; 0x0b
    1110:	89 81       	ldd	r24, Y+1	; 0x01
    1112:	9a 81       	ldd	r25, Y+2	; 0x02
    1114:	9c 01       	movw	r18, r24
    1116:	ad ec       	ldi	r26, 0xCD	; 205
    1118:	bc ec       	ldi	r27, 0xCC	; 204
    111a:	0e 94 01 15 	call	0x2a02	; 0x2a02 <__umulhisi3>
    111e:	96 95       	lsr	r25
    1120:	87 95       	ror	r24
    1122:	96 95       	lsr	r25
    1124:	87 95       	ror	r24
    1126:	96 95       	lsr	r25
    1128:	87 95       	ror	r24
    112a:	9a 83       	std	Y+2, r25	; 0x02
    112c:	89 83       	std	Y+1, r24	; 0x01
    112e:	8d 85       	ldd	r24, Y+13	; 0x0d
    1130:	68 2f       	mov	r22, r24
    1132:	70 e0       	ldi	r23, 0x00	; 0
    1134:	8b 89       	ldd	r24, Y+19	; 0x13
    1136:	28 2f       	mov	r18, r24
    1138:	30 e0       	ldi	r19, 0x00	; 0
    113a:	8a 89       	ldd	r24, Y+18	; 0x12
    113c:	88 2f       	mov	r24, r24
    113e:	90 e0       	ldi	r25, 0x00	; 0
    1140:	ac 01       	movw	r20, r24
    1142:	49 5f       	subi	r20, 0xF9	; 249
    1144:	5f 4f       	sbci	r21, 0xFF	; 255
    1146:	8f 81       	ldd	r24, Y+7	; 0x07
    1148:	88 2f       	mov	r24, r24
    114a:	90 e0       	ldi	r25, 0x00	; 0
    114c:	fa 01       	movw	r30, r20
    114e:	e8 1b       	sub	r30, r24
    1150:	f9 0b       	sbc	r31, r25
    1152:	cf 01       	movw	r24, r30
    1154:	e4 e1       	ldi	r30, 0x14	; 20
    1156:	e2 9f       	mul	r30, r18
    1158:	a0 01       	movw	r20, r0
    115a:	e3 9f       	mul	r30, r19
    115c:	50 0d       	add	r21, r0
    115e:	11 24       	eor	r1, r1
    1160:	e0 e5       	ldi	r30, 0x50	; 80
    1162:	e6 9f       	mul	r30, r22
    1164:	90 01       	movw	r18, r0
    1166:	e7 9f       	mul	r30, r23
    1168:	30 0d       	add	r19, r0
    116a:	11 24       	eor	r1, r1
    116c:	24 0f       	add	r18, r20
    116e:	35 1f       	adc	r19, r21
    1170:	82 0f       	add	r24, r18
    1172:	93 1f       	adc	r25, r19
    1174:	89 5f       	subi	r24, 0xF9	; 249
    1176:	9c 4f       	sbci	r25, 0xFC	; 252
    1178:	2b 85       	ldd	r18, Y+11	; 0x0b
    117a:	fc 01       	movw	r30, r24
    117c:	20 83       	st	Z, r18
    117e:	8f 81       	ldd	r24, Y+7	; 0x07
    1180:	8f 5f       	subi	r24, 0xFF	; 255
    1182:	8f 83       	std	Y+7, r24	; 0x07
    1184:	8f 81       	ldd	r24, Y+7	; 0x07
    1186:	83 30       	cpi	r24, 0x03	; 3
    1188:	08 f4       	brcc	.+2      	; 0x118c <__stack+0x8d>
    118a:	a4 cf       	rjmp	.-184    	; 0x10d4 <time_to_digit+0xe2>
    118c:	18 86       	std	Y+8, r1	; 0x08
    118e:	58 c0       	rjmp	.+176    	; 0x1240 <__stack+0x141>
    1190:	4d 81       	ldd	r20, Y+5	; 0x05
    1192:	5e 81       	ldd	r21, Y+6	; 0x06
    1194:	9a 01       	movw	r18, r20
    1196:	ad ec       	ldi	r26, 0xCD	; 205
    1198:	bc ec       	ldi	r27, 0xCC	; 204
    119a:	0e 94 01 15 	call	0x2a02	; 0x2a02 <__umulhisi3>
    119e:	96 95       	lsr	r25
    11a0:	87 95       	ror	r24
    11a2:	96 95       	lsr	r25
    11a4:	87 95       	ror	r24
    11a6:	96 95       	lsr	r25
    11a8:	87 95       	ror	r24
    11aa:	88 0f       	add	r24, r24
    11ac:	99 1f       	adc	r25, r25
    11ae:	9c 01       	movw	r18, r24
    11b0:	22 0f       	add	r18, r18
    11b2:	33 1f       	adc	r19, r19
    11b4:	22 0f       	add	r18, r18
    11b6:	33 1f       	adc	r19, r19
    11b8:	82 0f       	add	r24, r18
    11ba:	93 1f       	adc	r25, r19
    11bc:	9a 01       	movw	r18, r20
    11be:	28 1b       	sub	r18, r24
    11c0:	39 0b       	sbc	r19, r25
    11c2:	c9 01       	movw	r24, r18
    11c4:	8c 87       	std	Y+12, r24	; 0x0c
    11c6:	8c 85       	ldd	r24, Y+12	; 0x0c
    11c8:	80 5d       	subi	r24, 0xD0	; 208
    11ca:	8c 87       	std	Y+12, r24	; 0x0c
    11cc:	8d 81       	ldd	r24, Y+5	; 0x05
    11ce:	9e 81       	ldd	r25, Y+6	; 0x06
    11d0:	9c 01       	movw	r18, r24
    11d2:	ad ec       	ldi	r26, 0xCD	; 205
    11d4:	bc ec       	ldi	r27, 0xCC	; 204
    11d6:	0e 94 01 15 	call	0x2a02	; 0x2a02 <__umulhisi3>
    11da:	96 95       	lsr	r25
    11dc:	87 95       	ror	r24
    11de:	96 95       	lsr	r25
    11e0:	87 95       	ror	r24
    11e2:	96 95       	lsr	r25
    11e4:	87 95       	ror	r24
    11e6:	9e 83       	std	Y+6, r25	; 0x06
    11e8:	8d 83       	std	Y+5, r24	; 0x05
    11ea:	8d 85       	ldd	r24, Y+13	; 0x0d
    11ec:	68 2f       	mov	r22, r24
    11ee:	70 e0       	ldi	r23, 0x00	; 0
    11f0:	8b 89       	ldd	r24, Y+19	; 0x13
    11f2:	28 2f       	mov	r18, r24
    11f4:	30 e0       	ldi	r19, 0x00	; 0
    11f6:	8a 89       	ldd	r24, Y+18	; 0x12
    11f8:	88 2f       	mov	r24, r24
    11fa:	90 e0       	ldi	r25, 0x00	; 0
    11fc:	ac 01       	movw	r20, r24
    11fe:	4d 5f       	subi	r20, 0xFD	; 253
    1200:	5f 4f       	sbci	r21, 0xFF	; 255
    1202:	88 85       	ldd	r24, Y+8	; 0x08
    1204:	88 2f       	mov	r24, r24
    1206:	90 e0       	ldi	r25, 0x00	; 0
    1208:	fa 01       	movw	r30, r20
    120a:	e8 1b       	sub	r30, r24
    120c:	f9 0b       	sbc	r31, r25
    120e:	cf 01       	movw	r24, r30
    1210:	e4 e1       	ldi	r30, 0x14	; 20
    1212:	e2 9f       	mul	r30, r18
    1214:	a0 01       	movw	r20, r0
    1216:	e3 9f       	mul	r30, r19
    1218:	50 0d       	add	r21, r0
    121a:	11 24       	eor	r1, r1
    121c:	e0 e5       	ldi	r30, 0x50	; 80
    121e:	e6 9f       	mul	r30, r22
    1220:	90 01       	movw	r18, r0
    1222:	e7 9f       	mul	r30, r23
    1224:	30 0d       	add	r19, r0
    1226:	11 24       	eor	r1, r1
    1228:	24 0f       	add	r18, r20
    122a:	35 1f       	adc	r19, r21
    122c:	82 0f       	add	r24, r18
    122e:	93 1f       	adc	r25, r19
    1230:	89 5f       	subi	r24, 0xF9	; 249
    1232:	9c 4f       	sbci	r25, 0xFC	; 252
    1234:	2c 85       	ldd	r18, Y+12	; 0x0c
    1236:	fc 01       	movw	r30, r24
    1238:	20 83       	st	Z, r18
    123a:	88 85       	ldd	r24, Y+8	; 0x08
    123c:	8f 5f       	subi	r24, 0xFF	; 255
    123e:	88 87       	std	Y+8, r24	; 0x08
    1240:	88 85       	ldd	r24, Y+8	; 0x08
    1242:	82 30       	cpi	r24, 0x02	; 2
    1244:	08 f4       	brcc	.+2      	; 0x1248 <__stack+0x149>
    1246:	a4 cf       	rjmp	.-184    	; 0x1190 <__stack+0x91>
    1248:	19 86       	std	Y+9, r1	; 0x09
    124a:	66 c0       	rjmp	.+204    	; 0x1318 <__stack+0x219>
    124c:	4b 81       	ldd	r20, Y+3	; 0x03
    124e:	5c 81       	ldd	r21, Y+4	; 0x04
    1250:	9a 01       	movw	r18, r20
    1252:	ad ec       	ldi	r26, 0xCD	; 205
    1254:	bc ec       	ldi	r27, 0xCC	; 204
    1256:	0e 94 01 15 	call	0x2a02	; 0x2a02 <__umulhisi3>
    125a:	96 95       	lsr	r25
    125c:	87 95       	ror	r24
    125e:	96 95       	lsr	r25
    1260:	87 95       	ror	r24
    1262:	96 95       	lsr	r25
    1264:	87 95       	ror	r24
    1266:	88 0f       	add	r24, r24
    1268:	99 1f       	adc	r25, r25
    126a:	9c 01       	movw	r18, r24
    126c:	22 0f       	add	r18, r18
    126e:	33 1f       	adc	r19, r19
    1270:	22 0f       	add	r18, r18
    1272:	33 1f       	adc	r19, r19
    1274:	82 0f       	add	r24, r18
    1276:	93 1f       	adc	r25, r19
    1278:	9a 01       	movw	r18, r20
    127a:	28 1b       	sub	r18, r24
    127c:	39 0b       	sbc	r19, r25
    127e:	c9 01       	movw	r24, r18
    1280:	8a 87       	std	Y+10, r24	; 0x0a
    1282:	8a 85       	ldd	r24, Y+10	; 0x0a
    1284:	80 5d       	subi	r24, 0xD0	; 208
    1286:	8a 87       	std	Y+10, r24	; 0x0a
    1288:	31 e0       	ldi	r19, 0x01	; 1
    128a:	8a 85       	ldd	r24, Y+10	; 0x0a
    128c:	80 33       	cpi	r24, 0x30	; 48
    128e:	09 f0       	breq	.+2      	; 0x1292 <__stack+0x193>
    1290:	30 e0       	ldi	r19, 0x00	; 0
    1292:	21 e0       	ldi	r18, 0x01	; 1
    1294:	8b 81       	ldd	r24, Y+3	; 0x03
    1296:	9c 81       	ldd	r25, Y+4	; 0x04
    1298:	0a 97       	sbiw	r24, 0x0a	; 10
    129a:	08 f0       	brcs	.+2      	; 0x129e <__stack+0x19f>
    129c:	20 e0       	ldi	r18, 0x00	; 0
    129e:	83 2f       	mov	r24, r19
    12a0:	82 23       	and	r24, r18
    12a2:	88 23       	and	r24, r24
    12a4:	11 f0       	breq	.+4      	; 0x12aa <__stack+0x1ab>
    12a6:	80 e1       	ldi	r24, 0x10	; 16
    12a8:	8a 87       	std	Y+10, r24	; 0x0a
    12aa:	8b 81       	ldd	r24, Y+3	; 0x03
    12ac:	9c 81       	ldd	r25, Y+4	; 0x04
    12ae:	9c 01       	movw	r18, r24
    12b0:	ad ec       	ldi	r26, 0xCD	; 205
    12b2:	bc ec       	ldi	r27, 0xCC	; 204
    12b4:	0e 94 01 15 	call	0x2a02	; 0x2a02 <__umulhisi3>
    12b8:	96 95       	lsr	r25
    12ba:	87 95       	ror	r24
    12bc:	96 95       	lsr	r25
    12be:	87 95       	ror	r24
    12c0:	96 95       	lsr	r25
    12c2:	87 95       	ror	r24
    12c4:	9c 83       	std	Y+4, r25	; 0x04
    12c6:	8b 83       	std	Y+3, r24	; 0x03
    12c8:	8d 85       	ldd	r24, Y+13	; 0x0d
    12ca:	68 2f       	mov	r22, r24
    12cc:	70 e0       	ldi	r23, 0x00	; 0
    12ce:	8b 89       	ldd	r24, Y+19	; 0x13
    12d0:	28 2f       	mov	r18, r24
    12d2:	30 e0       	ldi	r19, 0x00	; 0
    12d4:	8a 89       	ldd	r24, Y+18	; 0x12
    12d6:	48 2f       	mov	r20, r24
    12d8:	50 e0       	ldi	r21, 0x00	; 0
    12da:	89 85       	ldd	r24, Y+9	; 0x09
    12dc:	88 2f       	mov	r24, r24
    12de:	90 e0       	ldi	r25, 0x00	; 0
    12e0:	fa 01       	movw	r30, r20
    12e2:	e8 1b       	sub	r30, r24
    12e4:	f9 0b       	sbc	r31, r25
    12e6:	cf 01       	movw	r24, r30
    12e8:	e4 e1       	ldi	r30, 0x14	; 20
    12ea:	e2 9f       	mul	r30, r18
    12ec:	a0 01       	movw	r20, r0
    12ee:	e3 9f       	mul	r30, r19
    12f0:	50 0d       	add	r21, r0
    12f2:	11 24       	eor	r1, r1
    12f4:	e0 e5       	ldi	r30, 0x50	; 80
    12f6:	e6 9f       	mul	r30, r22
    12f8:	90 01       	movw	r18, r0
    12fa:	e7 9f       	mul	r30, r23
    12fc:	30 0d       	add	r19, r0
    12fe:	11 24       	eor	r1, r1
    1300:	24 0f       	add	r18, r20
    1302:	35 1f       	adc	r19, r21
    1304:	82 0f       	add	r24, r18
    1306:	93 1f       	adc	r25, r19
    1308:	89 5f       	subi	r24, 0xF9	; 249
    130a:	9c 4f       	sbci	r25, 0xFC	; 252
    130c:	2a 85       	ldd	r18, Y+10	; 0x0a
    130e:	fc 01       	movw	r30, r24
    1310:	20 83       	st	Z, r18
    1312:	89 85       	ldd	r24, Y+9	; 0x09
    1314:	8f 5f       	subi	r24, 0xFF	; 255
    1316:	89 87       	std	Y+9, r24	; 0x09
    1318:	89 85       	ldd	r24, Y+9	; 0x09
    131a:	82 30       	cpi	r24, 0x02	; 2
    131c:	08 f4       	brcc	.+2      	; 0x1320 <__stack+0x221>
    131e:	96 cf       	rjmp	.-212    	; 0x124c <__stack+0x14d>
    1320:	00 00       	nop
    1322:	63 96       	adiw	r28, 0x13	; 19
    1324:	0f b6       	in	r0, 0x3f	; 63
    1326:	f8 94       	cli
    1328:	de bf       	out	0x3e, r29	; 62
    132a:	0f be       	out	0x3f, r0	; 63
    132c:	cd bf       	out	0x3d, r28	; 61
    132e:	df 91       	pop	r29
    1330:	cf 91       	pop	r28
    1332:	0f 91       	pop	r16
    1334:	08 95       	ret

00001336 <dsp_clear>:
    1336:	cf 93       	push	r28
    1338:	df 93       	push	r29
    133a:	00 d0       	rcall	.+0      	; 0x133c <dsp_clear+0x6>
    133c:	00 d0       	rcall	.+0      	; 0x133e <dsp_clear+0x8>
    133e:	cd b7       	in	r28, 0x3d	; 61
    1340:	de b7       	in	r29, 0x3e	; 62
    1342:	1a 82       	std	Y+2, r1	; 0x02
    1344:	19 82       	std	Y+1, r1	; 0x01
    1346:	56 c0       	rjmp	.+172    	; 0x13f4 <dsp_clear+0xbe>
    1348:	1c 82       	std	Y+4, r1	; 0x04
    134a:	1b 82       	std	Y+3, r1	; 0x03
    134c:	49 c0       	rjmp	.+146    	; 0x13e0 <dsp_clear+0xaa>
    134e:	89 81       	ldd	r24, Y+1	; 0x01
    1350:	9a 81       	ldd	r25, Y+2	; 0x02
    1352:	44 e1       	ldi	r20, 0x14	; 20
    1354:	48 9f       	mul	r20, r24
    1356:	90 01       	movw	r18, r0
    1358:	49 9f       	mul	r20, r25
    135a:	30 0d       	add	r19, r0
    135c:	11 24       	eor	r1, r1
    135e:	8b 81       	ldd	r24, Y+3	; 0x03
    1360:	9c 81       	ldd	r25, Y+4	; 0x04
    1362:	82 0f       	add	r24, r18
    1364:	93 1f       	adc	r25, r19
    1366:	89 5f       	subi	r24, 0xF9	; 249
    1368:	9c 4f       	sbci	r25, 0xFC	; 252
    136a:	20 e1       	ldi	r18, 0x10	; 16
    136c:	fc 01       	movw	r30, r24
    136e:	20 83       	st	Z, r18
    1370:	89 81       	ldd	r24, Y+1	; 0x01
    1372:	9a 81       	ldd	r25, Y+2	; 0x02
    1374:	44 e1       	ldi	r20, 0x14	; 20
    1376:	48 9f       	mul	r20, r24
    1378:	90 01       	movw	r18, r0
    137a:	49 9f       	mul	r20, r25
    137c:	30 0d       	add	r19, r0
    137e:	11 24       	eor	r1, r1
    1380:	8b 81       	ldd	r24, Y+3	; 0x03
    1382:	9c 81       	ldd	r25, Y+4	; 0x04
    1384:	82 0f       	add	r24, r18
    1386:	93 1f       	adc	r25, r19
    1388:	89 5a       	subi	r24, 0xA9	; 169
    138a:	9c 4f       	sbci	r25, 0xFC	; 252
    138c:	20 e1       	ldi	r18, 0x10	; 16
    138e:	fc 01       	movw	r30, r24
    1390:	20 83       	st	Z, r18
    1392:	89 81       	ldd	r24, Y+1	; 0x01
    1394:	9a 81       	ldd	r25, Y+2	; 0x02
    1396:	44 e1       	ldi	r20, 0x14	; 20
    1398:	48 9f       	mul	r20, r24
    139a:	90 01       	movw	r18, r0
    139c:	49 9f       	mul	r20, r25
    139e:	30 0d       	add	r19, r0
    13a0:	11 24       	eor	r1, r1
    13a2:	8b 81       	ldd	r24, Y+3	; 0x03
    13a4:	9c 81       	ldd	r25, Y+4	; 0x04
    13a6:	82 0f       	add	r24, r18
    13a8:	93 1f       	adc	r25, r19
    13aa:	89 55       	subi	r24, 0x59	; 89
    13ac:	9c 4f       	sbci	r25, 0xFC	; 252
    13ae:	20 e1       	ldi	r18, 0x10	; 16
    13b0:	fc 01       	movw	r30, r24
    13b2:	20 83       	st	Z, r18
    13b4:	89 81       	ldd	r24, Y+1	; 0x01
    13b6:	9a 81       	ldd	r25, Y+2	; 0x02
    13b8:	44 e1       	ldi	r20, 0x14	; 20
    13ba:	48 9f       	mul	r20, r24
    13bc:	90 01       	movw	r18, r0
    13be:	49 9f       	mul	r20, r25
    13c0:	30 0d       	add	r19, r0
    13c2:	11 24       	eor	r1, r1
    13c4:	8b 81       	ldd	r24, Y+3	; 0x03
    13c6:	9c 81       	ldd	r25, Y+4	; 0x04
    13c8:	82 0f       	add	r24, r18
    13ca:	93 1f       	adc	r25, r19
    13cc:	89 50       	subi	r24, 0x09	; 9
    13ce:	9c 4f       	sbci	r25, 0xFC	; 252
    13d0:	20 e1       	ldi	r18, 0x10	; 16
    13d2:	fc 01       	movw	r30, r24
    13d4:	20 83       	st	Z, r18
    13d6:	8b 81       	ldd	r24, Y+3	; 0x03
    13d8:	9c 81       	ldd	r25, Y+4	; 0x04
    13da:	01 96       	adiw	r24, 0x01	; 1
    13dc:	9c 83       	std	Y+4, r25	; 0x04
    13de:	8b 83       	std	Y+3, r24	; 0x03
    13e0:	8b 81       	ldd	r24, Y+3	; 0x03
    13e2:	9c 81       	ldd	r25, Y+4	; 0x04
    13e4:	44 97       	sbiw	r24, 0x14	; 20
    13e6:	0c f4       	brge	.+2      	; 0x13ea <dsp_clear+0xb4>
    13e8:	b2 cf       	rjmp	.-156    	; 0x134e <dsp_clear+0x18>
    13ea:	89 81       	ldd	r24, Y+1	; 0x01
    13ec:	9a 81       	ldd	r25, Y+2	; 0x02
    13ee:	01 96       	adiw	r24, 0x01	; 1
    13f0:	9a 83       	std	Y+2, r25	; 0x02
    13f2:	89 83       	std	Y+1, r24	; 0x01
    13f4:	89 81       	ldd	r24, Y+1	; 0x01
    13f6:	9a 81       	ldd	r25, Y+2	; 0x02
    13f8:	04 97       	sbiw	r24, 0x04	; 4
    13fa:	0c f4       	brge	.+2      	; 0x13fe <dsp_clear+0xc8>
    13fc:	a5 cf       	rjmp	.-182    	; 0x1348 <dsp_clear+0x12>
    13fe:	00 00       	nop
    1400:	0f 90       	pop	r0
    1402:	0f 90       	pop	r0
    1404:	0f 90       	pop	r0
    1406:	0f 90       	pop	r0
    1408:	df 91       	pop	r29
    140a:	cf 91       	pop	r28
    140c:	08 95       	ret

0000140e <dsp_arrayinit_static>:
    140e:	cf 93       	push	r28
    1410:	df 93       	push	r29
    1412:	cd b7       	in	r28, 0x3d	; 61
    1414:	de b7       	in	r29, 0x3e	; 62
    1416:	84 e5       	ldi	r24, 0x54	; 84
    1418:	80 93 07 03 	sts	0x0307, r24	; 0x800307 <dsp_data>
    141c:	83 e5       	ldi	r24, 0x53	; 83
    141e:	80 93 08 03 	sts	0x0308, r24	; 0x800308 <dsp_data+0x1>
    1422:	86 e5       	ldi	r24, 0x56	; 86
    1424:	80 93 09 03 	sts	0x0309, r24	; 0x800309 <dsp_data+0x2>
    1428:	83 e5       	ldi	r24, 0x53	; 83
    142a:	80 93 11 03 	sts	0x0311, r24	; 0x800311 <dsp_data+0xa>
    142e:	80 e5       	ldi	r24, 0x50	; 80
    1430:	80 93 12 03 	sts	0x0312, r24	; 0x800312 <dsp_data+0xb>
    1434:	84 e4       	ldi	r24, 0x44	; 68
    1436:	80 93 13 03 	sts	0x0313, r24	; 0x800313 <dsp_data+0xc>
    143a:	83 e4       	ldi	r24, 0x43	; 67
    143c:	80 93 1b 03 	sts	0x031B, r24	; 0x80031b <dsp_data+0x14>
    1440:	8f e4       	ldi	r24, 0x4F	; 79
    1442:	80 93 1c 03 	sts	0x031C, r24	; 0x80031c <dsp_data+0x15>
    1446:	8f e4       	ldi	r24, 0x4F	; 79
    1448:	80 93 1d 03 	sts	0x031D, r24	; 0x80031d <dsp_data+0x16>
    144c:	8c e4       	ldi	r24, 0x4C	; 76
    144e:	80 93 1e 03 	sts	0x031E, r24	; 0x80031e <dsp_data+0x17>
    1452:	81 e4       	ldi	r24, 0x41	; 65
    1454:	80 93 25 03 	sts	0x0325, r24	; 0x800325 <dsp_data+0x1e>
    1458:	83 e4       	ldi	r24, 0x43	; 67
    145a:	80 93 26 03 	sts	0x0326, r24	; 0x800326 <dsp_data+0x1f>
    145e:	84 e5       	ldi	r24, 0x54	; 84
    1460:	80 93 27 03 	sts	0x0327, r24	; 0x800327 <dsp_data+0x20>
    1464:	82 e4       	ldi	r24, 0x42	; 66
    1466:	80 93 2f 03 	sts	0x032F, r24	; 0x80032f <dsp_data+0x28>
    146a:	82 e4       	ldi	r24, 0x42	; 66
    146c:	80 93 30 03 	sts	0x0330, r24	; 0x800330 <dsp_data+0x29>
    1470:	83 e5       	ldi	r24, 0x53	; 83
    1472:	80 93 39 03 	sts	0x0339, r24	; 0x800339 <dsp_data+0x32>
    1476:	8f e4       	ldi	r24, 0x4F	; 79
    1478:	80 93 3a 03 	sts	0x033A, r24	; 0x80033a <dsp_data+0x33>
    147c:	83 e4       	ldi	r24, 0x43	; 67
    147e:	80 93 3b 03 	sts	0x033B, r24	; 0x80033b <dsp_data+0x34>
    1482:	8c e4       	ldi	r24, 0x4C	; 76
    1484:	80 93 4d 03 	sts	0x034D, r24	; 0x80034d <dsp_data+0x46>
    1488:	86 e5       	ldi	r24, 0x56	; 86
    148a:	80 93 4e 03 	sts	0x034E, r24	; 0x80034e <dsp_data+0x47>
    148e:	83 e5       	ldi	r24, 0x53	; 83
    1490:	80 93 4f 03 	sts	0x034F, r24	; 0x80034f <dsp_data+0x48>
    1494:	86 e5       	ldi	r24, 0x56	; 86
    1496:	80 93 0f 03 	sts	0x030F, r24	; 0x80030f <dsp_data+0x8>
    149a:	8b e4       	ldi	r24, 0x4B	; 75
    149c:	80 93 18 03 	sts	0x0318, r24	; 0x800318 <dsp_data+0x11>
    14a0:	8d e4       	ldi	r24, 0x4D	; 77
    14a2:	80 93 19 03 	sts	0x0319, r24	; 0x800319 <dsp_data+0x12>
    14a6:	88 e4       	ldi	r24, 0x48	; 72
    14a8:	80 93 1a 03 	sts	0x031A, r24	; 0x80031a <dsp_data+0x13>
    14ac:	83 e4       	ldi	r24, 0x43	; 67
    14ae:	80 93 23 03 	sts	0x0323, r24	; 0x800323 <dsp_data+0x1c>
    14b2:	83 e4       	ldi	r24, 0x43	; 67
    14b4:	80 93 2c 03 	sts	0x032C, r24	; 0x80032c <dsp_data+0x25>
    14b8:	8d e2       	ldi	r24, 0x2D	; 45
    14ba:	80 93 37 03 	sts	0x0337, r24	; 0x800337 <dsp_data+0x30>
    14be:	85 e2       	ldi	r24, 0x25	; 37
    14c0:	80 93 40 03 	sts	0x0340, r24	; 0x800340 <dsp_data+0x39>
    14c4:	86 e5       	ldi	r24, 0x56	; 86
    14c6:	80 93 54 03 	sts	0x0354, r24	; 0x800354 <dsp_data+0x4d>
    14ca:	84 e5       	ldi	r24, 0x54	; 84
    14cc:	80 93 57 03 	sts	0x0357, r24	; 0x800357 <dsp_data+0x50>
    14d0:	80 e5       	ldi	r24, 0x50	; 80
    14d2:	80 93 58 03 	sts	0x0358, r24	; 0x800358 <dsp_data+0x51>
    14d6:	83 e5       	ldi	r24, 0x53	; 83
    14d8:	80 93 59 03 	sts	0x0359, r24	; 0x800359 <dsp_data+0x52>
    14dc:	81 e3       	ldi	r24, 0x31	; 49
    14de:	80 93 5a 03 	sts	0x035A, r24	; 0x80035a <dsp_data+0x53>
    14e2:	82 e3       	ldi	r24, 0x32	; 50
    14e4:	80 93 61 03 	sts	0x0361, r24	; 0x800361 <dsp_data+0x5a>
    14e8:	81 e4       	ldi	r24, 0x41	; 65
    14ea:	80 93 6b 03 	sts	0x036B, r24	; 0x80036b <dsp_data+0x64>
    14ee:	80 e5       	ldi	r24, 0x50	; 80
    14f0:	80 93 6c 03 	sts	0x036C, r24	; 0x80036c <dsp_data+0x65>
    14f4:	83 e5       	ldi	r24, 0x53	; 83
    14f6:	80 93 6d 03 	sts	0x036D, r24	; 0x80036d <dsp_data+0x66>
    14fa:	81 e3       	ldi	r24, 0x31	; 49
    14fc:	80 93 6e 03 	sts	0x036E, r24	; 0x80036e <dsp_data+0x67>
    1500:	82 e3       	ldi	r24, 0x32	; 50
    1502:	80 93 75 03 	sts	0x0375, r24	; 0x800375 <dsp_data+0x6e>
    1506:	84 e5       	ldi	r24, 0x54	; 84
    1508:	80 93 7f 03 	sts	0x037F, r24	; 0x80037f <dsp_data+0x78>
    150c:	80 e5       	ldi	r24, 0x50	; 80
    150e:	80 93 80 03 	sts	0x0380, r24	; 0x800380 <dsp_data+0x79>
    1512:	83 e5       	ldi	r24, 0x53	; 83
    1514:	80 93 81 03 	sts	0x0381, r24	; 0x800381 <dsp_data+0x7a>
    1518:	85 e4       	ldi	r24, 0x45	; 69
    151a:	80 93 82 03 	sts	0x0382, r24	; 0x800382 <dsp_data+0x7b>
    151e:	82 e4       	ldi	r24, 0x42	; 66
    1520:	80 93 93 03 	sts	0x0393, r24	; 0x800393 <dsp_data+0x8c>
    1524:	80 e5       	ldi	r24, 0x50	; 80
    1526:	80 93 94 03 	sts	0x0394, r24	; 0x800394 <dsp_data+0x8d>
    152a:	86 e4       	ldi	r24, 0x46	; 70
    152c:	80 93 95 03 	sts	0x0395, r24	; 0x800395 <dsp_data+0x8e>
    1530:	82 e5       	ldi	r24, 0x52	; 82
    1532:	80 93 9b 03 	sts	0x039B, r24	; 0x80039b <dsp_data+0x94>
    1536:	85 e2       	ldi	r24, 0x25	; 37
    1538:	80 93 5f 03 	sts	0x035F, r24	; 0x80035f <dsp_data+0x58>
    153c:	85 e2       	ldi	r24, 0x25	; 37
    153e:	80 93 73 03 	sts	0x0373, r24	; 0x800373 <dsp_data+0x6c>
    1542:	85 e2       	ldi	r24, 0x25	; 37
    1544:	80 93 87 03 	sts	0x0387, r24	; 0x800387 <dsp_data+0x80>
    1548:	85 e2       	ldi	r24, 0x25	; 37
    154a:	80 93 66 03 	sts	0x0366, r24	; 0x800366 <dsp_data+0x5f>
    154e:	85 e2       	ldi	r24, 0x25	; 37
    1550:	80 93 7a 03 	sts	0x037A, r24	; 0x80037a <dsp_data+0x73>
    1554:	82 e4       	ldi	r24, 0x42	; 66
    1556:	80 93 99 03 	sts	0x0399, r24	; 0x800399 <dsp_data+0x92>
    155a:	82 e4       	ldi	r24, 0x42	; 66
    155c:	80 93 9f 03 	sts	0x039F, r24	; 0x80039f <dsp_data+0x98>
    1560:	84 e5       	ldi	r24, 0x54	; 84
    1562:	80 93 a7 03 	sts	0x03A7, r24	; 0x8003a7 <dsp_data+0xa0>
    1566:	83 e4       	ldi	r24, 0x43	; 67
    1568:	80 93 a8 03 	sts	0x03A8, r24	; 0x8003a8 <dsp_data+0xa1>
    156c:	82 e4       	ldi	r24, 0x42	; 66
    156e:	80 93 bb 03 	sts	0x03BB, r24	; 0x8003bb <dsp_data+0xb4>
    1572:	85 e4       	ldi	r24, 0x45	; 69
    1574:	80 93 bc 03 	sts	0x03BC, r24	; 0x8003bc <dsp_data+0xb5>
    1578:	83 e5       	ldi	r24, 0x53	; 83
    157a:	80 93 bd 03 	sts	0x03BD, r24	; 0x8003bd <dsp_data+0xb6>
    157e:	80 e5       	ldi	r24, 0x50	; 80
    1580:	80 93 cf 03 	sts	0x03CF, r24	; 0x8003cf <dsp_data+0xc8>
    1584:	82 e5       	ldi	r24, 0x52	; 82
    1586:	80 93 d0 03 	sts	0x03D0, r24	; 0x8003d0 <dsp_data+0xc9>
    158a:	85 e4       	ldi	r24, 0x45	; 69
    158c:	80 93 d1 03 	sts	0x03D1, r24	; 0x8003d1 <dsp_data+0xca>
    1590:	8c e4       	ldi	r24, 0x4C	; 76
    1592:	80 93 e3 03 	sts	0x03E3, r24	; 0x8003e3 <dsp_data+0xdc>
    1596:	8e e4       	ldi	r24, 0x4E	; 78
    1598:	80 93 e4 03 	sts	0x03E4, r24	; 0x8003e4 <dsp_data+0xdd>
    159c:	83 e5       	ldi	r24, 0x53	; 83
    159e:	80 93 ac 03 	sts	0x03AC, r24	; 0x8003ac <dsp_data+0xa5>
    15a2:	80 e5       	ldi	r24, 0x50	; 80
    15a4:	80 93 ad 03 	sts	0x03AD, r24	; 0x8003ad <dsp_data+0xa6>
    15a8:	85 e4       	ldi	r24, 0x45	; 69
    15aa:	80 93 ae 03 	sts	0x03AE, r24	; 0x8003ae <dsp_data+0xa7>
    15ae:	84 e4       	ldi	r24, 0x44	; 68
    15b0:	80 93 af 03 	sts	0x03AF, r24	; 0x8003af <dsp_data+0xa8>
    15b4:	8b e4       	ldi	r24, 0x4B	; 75
    15b6:	80 93 b4 03 	sts	0x03B4, r24	; 0x8003b4 <dsp_data+0xad>
    15ba:	8d e4       	ldi	r24, 0x4D	; 77
    15bc:	80 93 b5 03 	sts	0x03B5, r24	; 0x8003b5 <dsp_data+0xae>
    15c0:	88 e4       	ldi	r24, 0x48	; 72
    15c2:	80 93 b6 03 	sts	0x03B6, r24	; 0x8003b6 <dsp_data+0xaf>
    15c6:	8f e4       	ldi	r24, 0x4F	; 79
    15c8:	80 93 e9 03 	sts	0x03E9, r24	; 0x8003e9 <dsp_data+0xe2>
    15cc:	84 e4       	ldi	r24, 0x44	; 68
    15ce:	80 93 ea 03 	sts	0x03EA, r24	; 0x8003ea <dsp_data+0xe3>
    15d2:	8f e4       	ldi	r24, 0x4F	; 79
    15d4:	80 93 eb 03 	sts	0x03EB, r24	; 0x8003eb <dsp_data+0xe4>
    15d8:	8b e4       	ldi	r24, 0x4B	; 75
    15da:	80 93 f0 03 	sts	0x03F0, r24	; 0x8003f0 <dsp_data+0xe9>
    15de:	8d e4       	ldi	r24, 0x4D	; 77
    15e0:	80 93 f1 03 	sts	0x03F1, r24	; 0x8003f1 <dsp_data+0xea>
    15e4:	8a e3       	ldi	r24, 0x3A	; 58
    15e6:	80 93 c0 03 	sts	0x03C0, r24	; 0x8003c0 <dsp_data+0xb9>
    15ea:	8a e3       	ldi	r24, 0x3A	; 58
    15ec:	80 93 c3 03 	sts	0x03C3, r24	; 0x8003c3 <dsp_data+0xbc>
    15f0:	8a e3       	ldi	r24, 0x3A	; 58
    15f2:	80 93 d4 03 	sts	0x03D4, r24	; 0x8003d4 <dsp_data+0xcd>
    15f6:	8a e3       	ldi	r24, 0x3A	; 58
    15f8:	80 93 d7 03 	sts	0x03D7, r24	; 0x8003d7 <dsp_data+0xd0>
    15fc:	00 00       	nop
    15fe:	df 91       	pop	r29
    1600:	cf 91       	pop	r28
    1602:	08 95       	ret

00001604 <invert_binary_number>:
    1604:	cf 93       	push	r28
    1606:	df 93       	push	r29
    1608:	00 d0       	rcall	.+0      	; 0x160a <invert_binary_number+0x6>
    160a:	1f 92       	push	r1
    160c:	cd b7       	in	r28, 0x3d	; 61
    160e:	de b7       	in	r29, 0x3e	; 62
    1610:	8b 83       	std	Y+3, r24	; 0x03
    1612:	19 82       	std	Y+1, r1	; 0x01
    1614:	1a 82       	std	Y+2, r1	; 0x02
    1616:	22 c0       	rjmp	.+68     	; 0x165c <invert_binary_number+0x58>
    1618:	8b 81       	ldd	r24, Y+3	; 0x03
    161a:	88 2f       	mov	r24, r24
    161c:	90 e0       	ldi	r25, 0x00	; 0
    161e:	2a 81       	ldd	r18, Y+2	; 0x02
    1620:	22 2f       	mov	r18, r18
    1622:	30 e0       	ldi	r19, 0x00	; 0
    1624:	02 c0       	rjmp	.+4      	; 0x162a <invert_binary_number+0x26>
    1626:	95 95       	asr	r25
    1628:	87 95       	ror	r24
    162a:	2a 95       	dec	r18
    162c:	e2 f7       	brpl	.-8      	; 0x1626 <invert_binary_number+0x22>
    162e:	81 70       	andi	r24, 0x01	; 1
    1630:	99 27       	eor	r25, r25
    1632:	2a 81       	ldd	r18, Y+2	; 0x02
    1634:	22 2f       	mov	r18, r18
    1636:	30 e0       	ldi	r19, 0x00	; 0
    1638:	47 e0       	ldi	r20, 0x07	; 7
    163a:	50 e0       	ldi	r21, 0x00	; 0
    163c:	ba 01       	movw	r22, r20
    163e:	62 1b       	sub	r22, r18
    1640:	73 0b       	sbc	r23, r19
    1642:	9b 01       	movw	r18, r22
    1644:	02 c0       	rjmp	.+4      	; 0x164a <invert_binary_number+0x46>
    1646:	88 0f       	add	r24, r24
    1648:	99 1f       	adc	r25, r25
    164a:	2a 95       	dec	r18
    164c:	e2 f7       	brpl	.-8      	; 0x1646 <invert_binary_number+0x42>
    164e:	98 2f       	mov	r25, r24
    1650:	89 81       	ldd	r24, Y+1	; 0x01
    1652:	89 2b       	or	r24, r25
    1654:	89 83       	std	Y+1, r24	; 0x01
    1656:	8a 81       	ldd	r24, Y+2	; 0x02
    1658:	8f 5f       	subi	r24, 0xFF	; 255
    165a:	8a 83       	std	Y+2, r24	; 0x02
    165c:	8a 81       	ldd	r24, Y+2	; 0x02
    165e:	88 30       	cpi	r24, 0x08	; 8
    1660:	d8 f2       	brcs	.-74     	; 0x1618 <invert_binary_number+0x14>
    1662:	89 81       	ldd	r24, Y+1	; 0x01
    1664:	0f 90       	pop	r0
    1666:	0f 90       	pop	r0
    1668:	0f 90       	pop	r0
    166a:	df 91       	pop	r29
    166c:	cf 91       	pop	r28
    166e:	08 95       	ret

00001670 <clear_top_left_bar>:
    1670:	cf 93       	push	r28
    1672:	df 93       	push	r29
    1674:	cd b7       	in	r28, 0x3d	; 61
    1676:	de b7       	in	r29, 0x3e	; 62
    1678:	82 e2       	ldi	r24, 0x22	; 34
    167a:	90 e0       	ldi	r25, 0x00	; 0
    167c:	22 e2       	ldi	r18, 0x22	; 34
    167e:	30 e0       	ldi	r19, 0x00	; 0
    1680:	f9 01       	movw	r30, r18
    1682:	20 81       	ld	r18, Z
    1684:	2f 70       	andi	r18, 0x0F	; 15
    1686:	fc 01       	movw	r30, r24
    1688:	20 83       	st	Z, r18
    168a:	84 e3       	ldi	r24, 0x34	; 52
    168c:	90 e0       	ldi	r25, 0x00	; 0
    168e:	24 e3       	ldi	r18, 0x34	; 52
    1690:	30 e0       	ldi	r19, 0x00	; 0
    1692:	f9 01       	movw	r30, r18
    1694:	20 81       	ld	r18, Z
    1696:	2b 7f       	andi	r18, 0xFB	; 251
    1698:	fc 01       	movw	r30, r24
    169a:	20 83       	st	Z, r18
    169c:	00 00       	nop
    169e:	df 91       	pop	r29
    16a0:	cf 91       	pop	r28
    16a2:	08 95       	ret

000016a4 <clear_top_right_bar>:
    16a4:	cf 93       	push	r28
    16a6:	df 93       	push	r29
    16a8:	cd b7       	in	r28, 0x3d	; 61
    16aa:	de b7       	in	r29, 0x3e	; 62
    16ac:	88 e2       	ldi	r24, 0x28	; 40
    16ae:	90 e0       	ldi	r25, 0x00	; 0
    16b0:	fc 01       	movw	r30, r24
    16b2:	10 82       	st	Z, r1
    16b4:	84 e3       	ldi	r24, 0x34	; 52
    16b6:	90 e0       	ldi	r25, 0x00	; 0
    16b8:	24 e3       	ldi	r18, 0x34	; 52
    16ba:	30 e0       	ldi	r19, 0x00	; 0
    16bc:	f9 01       	movw	r30, r18
    16be:	20 81       	ld	r18, Z
    16c0:	2c 7f       	andi	r18, 0xFC	; 252
    16c2:	fc 01       	movw	r30, r24
    16c4:	20 83       	st	Z, r18
    16c6:	00 00       	nop
    16c8:	df 91       	pop	r29
    16ca:	cf 91       	pop	r28
    16cc:	08 95       	ret

000016ce <led_left_top_bar_select>:
    16ce:	cf 93       	push	r28
    16d0:	df 93       	push	r29
    16d2:	1f 92       	push	r1
    16d4:	cd b7       	in	r28, 0x3d	; 61
    16d6:	de b7       	in	r29, 0x3e	; 62
    16d8:	89 83       	std	Y+1, r24	; 0x01
    16da:	82 e2       	ldi	r24, 0x22	; 34
    16dc:	90 e0       	ldi	r25, 0x00	; 0
    16de:	22 e2       	ldi	r18, 0x22	; 34
    16e0:	30 e0       	ldi	r19, 0x00	; 0
    16e2:	f9 01       	movw	r30, r18
    16e4:	20 81       	ld	r18, Z
    16e6:	62 2f       	mov	r22, r18
    16e8:	29 81       	ldd	r18, Y+1	; 0x01
    16ea:	42 2f       	mov	r20, r18
    16ec:	50 e0       	ldi	r21, 0x00	; 0
    16ee:	2f ef       	ldi	r18, 0xFF	; 255
    16f0:	30 e0       	ldi	r19, 0x00	; 0
    16f2:	02 c0       	rjmp	.+4      	; 0x16f8 <led_left_top_bar_select+0x2a>
    16f4:	22 0f       	add	r18, r18
    16f6:	33 1f       	adc	r19, r19
    16f8:	4a 95       	dec	r20
    16fa:	e2 f7       	brpl	.-8      	; 0x16f4 <led_left_top_bar_select+0x26>
    16fc:	20 95       	com	r18
    16fe:	30 95       	com	r19
    1700:	22 95       	swap	r18
    1702:	32 95       	swap	r19
    1704:	30 7f       	andi	r19, 0xF0	; 240
    1706:	32 27       	eor	r19, r18
    1708:	20 7f       	andi	r18, 0xF0	; 240
    170a:	32 27       	eor	r19, r18
    170c:	26 2b       	or	r18, r22
    170e:	fc 01       	movw	r30, r24
    1710:	20 83       	st	Z, r18
    1712:	84 e3       	ldi	r24, 0x34	; 52
    1714:	90 e0       	ldi	r25, 0x00	; 0
    1716:	24 e3       	ldi	r18, 0x34	; 52
    1718:	30 e0       	ldi	r19, 0x00	; 0
    171a:	f9 01       	movw	r30, r18
    171c:	20 81       	ld	r18, Z
    171e:	62 2f       	mov	r22, r18
    1720:	29 81       	ldd	r18, Y+1	; 0x01
    1722:	42 2f       	mov	r20, r18
    1724:	50 e0       	ldi	r21, 0x00	; 0
    1726:	20 e8       	ldi	r18, 0x80	; 128
    1728:	30 e0       	ldi	r19, 0x00	; 0
    172a:	02 c0       	rjmp	.+4      	; 0x1730 <led_left_top_bar_select+0x62>
    172c:	35 95       	asr	r19
    172e:	27 95       	ror	r18
    1730:	4a 95       	dec	r20
    1732:	e2 f7       	brpl	.-8      	; 0x172c <led_left_top_bar_select+0x5e>
    1734:	24 70       	andi	r18, 0x04	; 4
    1736:	26 2b       	or	r18, r22
    1738:	fc 01       	movw	r30, r24
    173a:	20 83       	st	Z, r18
    173c:	00 00       	nop
    173e:	0f 90       	pop	r0
    1740:	df 91       	pop	r29
    1742:	cf 91       	pop	r28
    1744:	08 95       	ret

00001746 <led_right_top_bar_select>:
    1746:	cf 93       	push	r28
    1748:	df 93       	push	r29
    174a:	1f 92       	push	r1
    174c:	cd b7       	in	r28, 0x3d	; 61
    174e:	de b7       	in	r29, 0x3e	; 62
    1750:	89 83       	std	Y+1, r24	; 0x01
    1752:	88 e2       	ldi	r24, 0x28	; 40
    1754:	90 e0       	ldi	r25, 0x00	; 0
    1756:	28 e2       	ldi	r18, 0x28	; 40
    1758:	30 e0       	ldi	r19, 0x00	; 0
    175a:	f9 01       	movw	r30, r18
    175c:	20 81       	ld	r18, Z
    175e:	62 2f       	mov	r22, r18
    1760:	29 81       	ldd	r18, Y+1	; 0x01
    1762:	42 2f       	mov	r20, r18
    1764:	50 e0       	ldi	r21, 0x00	; 0
    1766:	2f ef       	ldi	r18, 0xFF	; 255
    1768:	30 e0       	ldi	r19, 0x00	; 0
    176a:	02 c0       	rjmp	.+4      	; 0x1770 <led_right_top_bar_select+0x2a>
    176c:	35 95       	asr	r19
    176e:	27 95       	ror	r18
    1770:	4a 95       	dec	r20
    1772:	e2 f7       	brpl	.-8      	; 0x176c <led_right_top_bar_select+0x26>
    1774:	20 95       	com	r18
    1776:	26 2b       	or	r18, r22
    1778:	fc 01       	movw	r30, r24
    177a:	20 83       	st	Z, r18
    177c:	84 e3       	ldi	r24, 0x34	; 52
    177e:	90 e0       	ldi	r25, 0x00	; 0
    1780:	24 e3       	ldi	r18, 0x34	; 52
    1782:	30 e0       	ldi	r19, 0x00	; 0
    1784:	f9 01       	movw	r30, r18
    1786:	20 81       	ld	r18, Z
    1788:	62 2f       	mov	r22, r18
    178a:	39 81       	ldd	r19, Y+1	; 0x01
    178c:	29 e3       	ldi	r18, 0x39	; 57
    178e:	32 9f       	mul	r19, r18
    1790:	21 2d       	mov	r18, r1
    1792:	11 24       	eor	r1, r1
    1794:	26 95       	lsr	r18
    1796:	42 2f       	mov	r20, r18
    1798:	50 e0       	ldi	r21, 0x00	; 0
    179a:	2f ef       	ldi	r18, 0xFF	; 255
    179c:	30 e0       	ldi	r19, 0x00	; 0
    179e:	02 c0       	rjmp	.+4      	; 0x17a4 <led_right_top_bar_select+0x5e>
    17a0:	22 0f       	add	r18, r18
    17a2:	33 1f       	adc	r19, r19
    17a4:	4a 95       	dec	r20
    17a6:	e2 f7       	brpl	.-8      	; 0x17a0 <led_right_top_bar_select+0x5a>
    17a8:	20 95       	com	r18
    17aa:	30 95       	com	r19
    17ac:	59 81       	ldd	r21, Y+1	; 0x01
    17ae:	49 e3       	ldi	r20, 0x39	; 57
    17b0:	54 9f       	mul	r21, r20
    17b2:	41 2d       	mov	r20, r1
    17b4:	11 24       	eor	r1, r1
    17b6:	46 95       	lsr	r20
    17b8:	44 2f       	mov	r20, r20
    17ba:	50 e0       	ldi	r21, 0x00	; 0
    17bc:	02 c0       	rjmp	.+4      	; 0x17c2 <led_right_top_bar_select+0x7c>
    17be:	22 0f       	add	r18, r18
    17c0:	33 1f       	adc	r19, r19
    17c2:	4a 95       	dec	r20
    17c4:	e2 f7       	brpl	.-8      	; 0x17be <led_right_top_bar_select+0x78>
    17c6:	42 2f       	mov	r20, r18
    17c8:	39 81       	ldd	r19, Y+1	; 0x01
    17ca:	2d ec       	ldi	r18, 0xCD	; 205
    17cc:	32 9f       	mul	r19, r18
    17ce:	21 2d       	mov	r18, r1
    17d0:	11 24       	eor	r1, r1
    17d2:	26 95       	lsr	r18
    17d4:	26 95       	lsr	r18
    17d6:	26 95       	lsr	r18
    17d8:	24 0f       	add	r18, r20
    17da:	26 2b       	or	r18, r22
    17dc:	fc 01       	movw	r30, r24
    17de:	20 83       	st	Z, r18
    17e0:	00 00       	nop
    17e2:	0f 90       	pop	r0
    17e4:	df 91       	pop	r29
    17e6:	cf 91       	pop	r28
    17e8:	08 95       	ret

000017ea <dsp_writedata>:
    17ea:	0f 93       	push	r16
    17ec:	1f 93       	push	r17
    17ee:	cf 93       	push	r28
    17f0:	df 93       	push	r29
    17f2:	00 d0       	rcall	.+0      	; 0x17f4 <dsp_writedata+0xa>
    17f4:	00 d0       	rcall	.+0      	; 0x17f6 <dsp_writedata+0xc>
    17f6:	cd b7       	in	r28, 0x3d	; 61
    17f8:	de b7       	in	r29, 0x3e	; 62
    17fa:	8b 83       	std	Y+3, r24	; 0x03
    17fc:	6c 83       	std	Y+4, r22	; 0x04
    17fe:	0e e2       	ldi	r16, 0x2E	; 46
    1800:	10 e0       	ldi	r17, 0x00	; 0
    1802:	8b 81       	ldd	r24, Y+3	; 0x03
    1804:	ff de       	rcall	.-514    	; 0x1604 <invert_binary_number>
    1806:	f8 01       	movw	r30, r16
    1808:	80 83       	st	Z, r24
    180a:	8c 81       	ldd	r24, Y+4	; 0x04
    180c:	81 30       	cpi	r24, 0x01	; 1
    180e:	51 f4       	brne	.+20     	; 0x1824 <dsp_writedata+0x3a>
    1810:	85 e2       	ldi	r24, 0x25	; 37
    1812:	90 e0       	ldi	r25, 0x00	; 0
    1814:	25 e2       	ldi	r18, 0x25	; 37
    1816:	30 e0       	ldi	r19, 0x00	; 0
    1818:	f9 01       	movw	r30, r18
    181a:	20 81       	ld	r18, Z
    181c:	20 64       	ori	r18, 0x40	; 64
    181e:	fc 01       	movw	r30, r24
    1820:	20 83       	st	Z, r18
    1822:	09 c0       	rjmp	.+18     	; 0x1836 <dsp_writedata+0x4c>
    1824:	85 e2       	ldi	r24, 0x25	; 37
    1826:	90 e0       	ldi	r25, 0x00	; 0
    1828:	25 e2       	ldi	r18, 0x25	; 37
    182a:	30 e0       	ldi	r19, 0x00	; 0
    182c:	f9 01       	movw	r30, r18
    182e:	20 81       	ld	r18, Z
    1830:	2f 7b       	andi	r18, 0xBF	; 191
    1832:	fc 01       	movw	r30, r24
    1834:	20 83       	st	Z, r18
    1836:	85 e2       	ldi	r24, 0x25	; 37
    1838:	90 e0       	ldi	r25, 0x00	; 0
    183a:	25 e2       	ldi	r18, 0x25	; 37
    183c:	30 e0       	ldi	r19, 0x00	; 0
    183e:	f9 01       	movw	r30, r18
    1840:	20 81       	ld	r18, Z
    1842:	20 61       	ori	r18, 0x10	; 16
    1844:	fc 01       	movw	r30, r24
    1846:	20 83       	st	Z, r18
    1848:	1a 82       	std	Y+2, r1	; 0x02
    184a:	19 82       	std	Y+1, r1	; 0x01
    184c:	05 c0       	rjmp	.+10     	; 0x1858 <dsp_writedata+0x6e>
    184e:	89 81       	ldd	r24, Y+1	; 0x01
    1850:	9a 81       	ldd	r25, Y+2	; 0x02
    1852:	01 96       	adiw	r24, 0x01	; 1
    1854:	9a 83       	std	Y+2, r25	; 0x02
    1856:	89 83       	std	Y+1, r24	; 0x01
    1858:	89 81       	ldd	r24, Y+1	; 0x01
    185a:	9a 81       	ldd	r25, Y+2	; 0x02
    185c:	84 36       	cpi	r24, 0x64	; 100
    185e:	91 05       	cpc	r25, r1
    1860:	b4 f3       	brlt	.-20     	; 0x184e <dsp_writedata+0x64>
    1862:	85 e2       	ldi	r24, 0x25	; 37
    1864:	90 e0       	ldi	r25, 0x00	; 0
    1866:	25 e2       	ldi	r18, 0x25	; 37
    1868:	30 e0       	ldi	r19, 0x00	; 0
    186a:	f9 01       	movw	r30, r18
    186c:	20 81       	ld	r18, Z
    186e:	2f 7e       	andi	r18, 0xEF	; 239
    1870:	fc 01       	movw	r30, r24
    1872:	20 83       	st	Z, r18
    1874:	00 00       	nop
    1876:	0f 90       	pop	r0
    1878:	0f 90       	pop	r0
    187a:	0f 90       	pop	r0
    187c:	0f 90       	pop	r0
    187e:	df 91       	pop	r29
    1880:	cf 91       	pop	r28
    1882:	1f 91       	pop	r17
    1884:	0f 91       	pop	r16
    1886:	08 95       	ret

00001888 <dsp_customchar>:
    1888:	8f 92       	push	r8
    188a:	af 92       	push	r10
    188c:	cf 92       	push	r12
    188e:	ef 92       	push	r14
    1890:	0f 93       	push	r16
    1892:	cf 93       	push	r28
    1894:	df 93       	push	r29
    1896:	cd b7       	in	r28, 0x3d	; 61
    1898:	de b7       	in	r29, 0x3e	; 62
    189a:	29 97       	sbiw	r28, 0x09	; 9
    189c:	0f b6       	in	r0, 0x3f	; 63
    189e:	f8 94       	cli
    18a0:	de bf       	out	0x3e, r29	; 62
    18a2:	0f be       	out	0x3f, r0	; 63
    18a4:	cd bf       	out	0x3d, r28	; 61
    18a6:	89 83       	std	Y+1, r24	; 0x01
    18a8:	6a 83       	std	Y+2, r22	; 0x02
    18aa:	4b 83       	std	Y+3, r20	; 0x03
    18ac:	2c 83       	std	Y+4, r18	; 0x04
    18ae:	0d 83       	std	Y+5, r16	; 0x05
    18b0:	ee 82       	std	Y+6, r14	; 0x06
    18b2:	cf 82       	std	Y+7, r12	; 0x07
    18b4:	a8 86       	std	Y+8, r10	; 0x08
    18b6:	89 86       	std	Y+9, r8	; 0x09
    18b8:	89 81       	ldd	r24, Y+1	; 0x01
    18ba:	88 2f       	mov	r24, r24
    18bc:	90 e0       	ldi	r25, 0x00	; 0
    18be:	08 96       	adiw	r24, 0x08	; 8
    18c0:	88 0f       	add	r24, r24
    18c2:	88 0f       	add	r24, r24
    18c4:	88 0f       	add	r24, r24
    18c6:	60 e0       	ldi	r22, 0x00	; 0
    18c8:	90 df       	rcall	.-224    	; 0x17ea <dsp_writedata>
    18ca:	61 e0       	ldi	r22, 0x01	; 1
    18cc:	8a 81       	ldd	r24, Y+2	; 0x02
    18ce:	8d df       	rcall	.-230    	; 0x17ea <dsp_writedata>
    18d0:	61 e0       	ldi	r22, 0x01	; 1
    18d2:	8b 81       	ldd	r24, Y+3	; 0x03
    18d4:	8a df       	rcall	.-236    	; 0x17ea <dsp_writedata>
    18d6:	61 e0       	ldi	r22, 0x01	; 1
    18d8:	8c 81       	ldd	r24, Y+4	; 0x04
    18da:	87 df       	rcall	.-242    	; 0x17ea <dsp_writedata>
    18dc:	61 e0       	ldi	r22, 0x01	; 1
    18de:	8d 81       	ldd	r24, Y+5	; 0x05
    18e0:	84 df       	rcall	.-248    	; 0x17ea <dsp_writedata>
    18e2:	61 e0       	ldi	r22, 0x01	; 1
    18e4:	8e 81       	ldd	r24, Y+6	; 0x06
    18e6:	81 df       	rcall	.-254    	; 0x17ea <dsp_writedata>
    18e8:	61 e0       	ldi	r22, 0x01	; 1
    18ea:	8f 81       	ldd	r24, Y+7	; 0x07
    18ec:	7e df       	rcall	.-260    	; 0x17ea <dsp_writedata>
    18ee:	61 e0       	ldi	r22, 0x01	; 1
    18f0:	88 85       	ldd	r24, Y+8	; 0x08
    18f2:	7b df       	rcall	.-266    	; 0x17ea <dsp_writedata>
    18f4:	61 e0       	ldi	r22, 0x01	; 1
    18f6:	89 85       	ldd	r24, Y+9	; 0x09
    18f8:	78 df       	rcall	.-272    	; 0x17ea <dsp_writedata>
    18fa:	60 e0       	ldi	r22, 0x00	; 0
    18fc:	82 e0       	ldi	r24, 0x02	; 2
    18fe:	75 df       	rcall	.-278    	; 0x17ea <dsp_writedata>
    1900:	00 00       	nop
    1902:	29 96       	adiw	r28, 0x09	; 9
    1904:	0f b6       	in	r0, 0x3f	; 63
    1906:	f8 94       	cli
    1908:	de bf       	out	0x3e, r29	; 62
    190a:	0f be       	out	0x3f, r0	; 63
    190c:	cd bf       	out	0x3d, r28	; 61
    190e:	df 91       	pop	r29
    1910:	cf 91       	pop	r28
    1912:	0f 91       	pop	r16
    1914:	ef 90       	pop	r14
    1916:	cf 90       	pop	r12
    1918:	af 90       	pop	r10
    191a:	8f 90       	pop	r8
    191c:	08 95       	ret

0000191e <dsp_write>:
    191e:	cf 93       	push	r28
    1920:	df 93       	push	r29
    1922:	1f 92       	push	r1
    1924:	cd b7       	in	r28, 0x3d	; 61
    1926:	de b7       	in	r29, 0x3e	; 62
    1928:	89 83       	std	Y+1, r24	; 0x01
    192a:	80 91 26 02 	lds	r24, 0x0226	; 0x800226 <counter>
    192e:	84 31       	cpi	r24, 0x14	; 20
    1930:	28 f5       	brcc	.+74     	; 0x197c <dsp_write+0x5e>
    1932:	89 81       	ldd	r24, Y+1	; 0x01
    1934:	68 2f       	mov	r22, r24
    1936:	70 e0       	ldi	r23, 0x00	; 0
    1938:	80 91 27 02 	lds	r24, 0x0227	; 0x800227 <dsp_linecounter>
    193c:	28 2f       	mov	r18, r24
    193e:	30 e0       	ldi	r19, 0x00	; 0
    1940:	80 91 26 02 	lds	r24, 0x0226	; 0x800226 <counter>
    1944:	91 e0       	ldi	r25, 0x01	; 1
    1946:	98 0f       	add	r25, r24
    1948:	90 93 26 02 	sts	0x0226, r25	; 0x800226 <counter>
    194c:	88 2f       	mov	r24, r24
    194e:	90 e0       	ldi	r25, 0x00	; 0
    1950:	e4 e1       	ldi	r30, 0x14	; 20
    1952:	e2 9f       	mul	r30, r18
    1954:	a0 01       	movw	r20, r0
    1956:	e3 9f       	mul	r30, r19
    1958:	50 0d       	add	r21, r0
    195a:	11 24       	eor	r1, r1
    195c:	e0 e5       	ldi	r30, 0x50	; 80
    195e:	e6 9f       	mul	r30, r22
    1960:	90 01       	movw	r18, r0
    1962:	e7 9f       	mul	r30, r23
    1964:	30 0d       	add	r19, r0
    1966:	11 24       	eor	r1, r1
    1968:	24 0f       	add	r18, r20
    196a:	35 1f       	adc	r19, r21
    196c:	82 0f       	add	r24, r18
    196e:	93 1f       	adc	r25, r19
    1970:	89 5f       	subi	r24, 0xF9	; 249
    1972:	9c 4f       	sbci	r25, 0xFC	; 252
    1974:	fc 01       	movw	r30, r24
    1976:	80 81       	ld	r24, Z
    1978:	61 e0       	ldi	r22, 0x01	; 1
    197a:	37 df       	rcall	.-402    	; 0x17ea <dsp_writedata>
    197c:	80 91 26 02 	lds	r24, 0x0226	; 0x800226 <counter>
    1980:	84 31       	cpi	r24, 0x14	; 20
    1982:	89 f4       	brne	.+34     	; 0x19a6 <dsp_write+0x88>
    1984:	80 91 27 02 	lds	r24, 0x0227	; 0x800227 <dsp_linecounter>
    1988:	88 2f       	mov	r24, r24
    198a:	90 e0       	ldi	r25, 0x00	; 0
    198c:	89 5f       	subi	r24, 0xF9	; 249
    198e:	9e 4f       	sbci	r25, 0xFE	; 254
    1990:	fc 01       	movw	r30, r24
    1992:	80 81       	ld	r24, Z
    1994:	60 e0       	ldi	r22, 0x00	; 0
    1996:	29 df       	rcall	.-430    	; 0x17ea <dsp_writedata>
    1998:	10 92 26 02 	sts	0x0226, r1	; 0x800226 <counter>
    199c:	80 91 27 02 	lds	r24, 0x0227	; 0x800227 <dsp_linecounter>
    19a0:	8f 5f       	subi	r24, 0xFF	; 255
    19a2:	80 93 27 02 	sts	0x0227, r24	; 0x800227 <dsp_linecounter>
    19a6:	80 91 27 02 	lds	r24, 0x0227	; 0x800227 <dsp_linecounter>
    19aa:	84 30       	cpi	r24, 0x04	; 4
    19ac:	11 f4       	brne	.+4      	; 0x19b2 <dsp_write+0x94>
    19ae:	10 92 27 02 	sts	0x0227, r1	; 0x800227 <dsp_linecounter>
    19b2:	00 00       	nop
    19b4:	0f 90       	pop	r0
    19b6:	df 91       	pop	r29
    19b8:	cf 91       	pop	r28
    19ba:	08 95       	ret

000019bc <dsp_definechars>:
    19bc:	8f 92       	push	r8
    19be:	af 92       	push	r10
    19c0:	cf 92       	push	r12
    19c2:	ef 92       	push	r14
    19c4:	0f 93       	push	r16
    19c6:	cf 93       	push	r28
    19c8:	df 93       	push	r29
    19ca:	cd b7       	in	r28, 0x3d	; 61
    19cc:	de b7       	in	r29, 0x3e	; 62
    19ce:	0f 2e       	mov	r0, r31
    19d0:	ff e1       	ldi	r31, 0x1F	; 31
    19d2:	8f 2e       	mov	r8, r31
    19d4:	f0 2d       	mov	r31, r0
    19d6:	0f 2e       	mov	r0, r31
    19d8:	ff e1       	ldi	r31, 0x1F	; 31
    19da:	af 2e       	mov	r10, r31
    19dc:	f0 2d       	mov	r31, r0
    19de:	0f 2e       	mov	r0, r31
    19e0:	ff e1       	ldi	r31, 0x1F	; 31
    19e2:	cf 2e       	mov	r12, r31
    19e4:	f0 2d       	mov	r31, r0
    19e6:	e1 2c       	mov	r14, r1
    19e8:	00 e0       	ldi	r16, 0x00	; 0
    19ea:	20 e0       	ldi	r18, 0x00	; 0
    19ec:	40 e0       	ldi	r20, 0x00	; 0
    19ee:	60 e0       	ldi	r22, 0x00	; 0
    19f0:	80 e0       	ldi	r24, 0x00	; 0
    19f2:	4a df       	rcall	.-364    	; 0x1888 <dsp_customchar>
    19f4:	81 2c       	mov	r8, r1
    19f6:	a1 2c       	mov	r10, r1
    19f8:	c1 2c       	mov	r12, r1
    19fa:	e1 2c       	mov	r14, r1
    19fc:	00 e0       	ldi	r16, 0x00	; 0
    19fe:	20 e0       	ldi	r18, 0x00	; 0
    1a00:	4f e1       	ldi	r20, 0x1F	; 31
    1a02:	6f e1       	ldi	r22, 0x1F	; 31
    1a04:	81 e0       	ldi	r24, 0x01	; 1
    1a06:	40 df       	rcall	.-384    	; 0x1888 <dsp_customchar>
    1a08:	0f 2e       	mov	r0, r31
    1a0a:	ff ee       	ldi	r31, 0xEF	; 239
    1a0c:	8f 2e       	mov	r8, r31
    1a0e:	f0 2d       	mov	r31, r0
    1a10:	0f 2e       	mov	r0, r31
    1a12:	ff ee       	ldi	r31, 0xEF	; 239
    1a14:	af 2e       	mov	r10, r31
    1a16:	f0 2d       	mov	r31, r0
    1a18:	0f 2e       	mov	r0, r31
    1a1a:	ff ee       	ldi	r31, 0xEF	; 239
    1a1c:	cf 2e       	mov	r12, r31
    1a1e:	f0 2d       	mov	r31, r0
    1a20:	0f 2e       	mov	r0, r31
    1a22:	ff ee       	ldi	r31, 0xEF	; 239
    1a24:	ef 2e       	mov	r14, r31
    1a26:	f0 2d       	mov	r31, r0
    1a28:	0f ee       	ldi	r16, 0xEF	; 239
    1a2a:	2f ee       	ldi	r18, 0xEF	; 239
    1a2c:	4f ee       	ldi	r20, 0xEF	; 239
    1a2e:	6f ee       	ldi	r22, 0xEF	; 239
    1a30:	82 e0       	ldi	r24, 0x02	; 2
    1a32:	2a df       	rcall	.-428    	; 0x1888 <dsp_customchar>
    1a34:	0f 2e       	mov	r0, r31
    1a36:	fe e1       	ldi	r31, 0x1E	; 30
    1a38:	8f 2e       	mov	r8, r31
    1a3a:	f0 2d       	mov	r31, r0
    1a3c:	0f 2e       	mov	r0, r31
    1a3e:	fe e1       	ldi	r31, 0x1E	; 30
    1a40:	af 2e       	mov	r10, r31
    1a42:	f0 2d       	mov	r31, r0
    1a44:	0f 2e       	mov	r0, r31
    1a46:	fe e1       	ldi	r31, 0x1E	; 30
    1a48:	cf 2e       	mov	r12, r31
    1a4a:	f0 2d       	mov	r31, r0
    1a4c:	0f 2e       	mov	r0, r31
    1a4e:	fe e1       	ldi	r31, 0x1E	; 30
    1a50:	ef 2e       	mov	r14, r31
    1a52:	f0 2d       	mov	r31, r0
    1a54:	0e e1       	ldi	r16, 0x1E	; 30
    1a56:	2e e1       	ldi	r18, 0x1E	; 30
    1a58:	4e e1       	ldi	r20, 0x1E	; 30
    1a5a:	6e e1       	ldi	r22, 0x1E	; 30
    1a5c:	83 e0       	ldi	r24, 0x03	; 3
    1a5e:	14 df       	rcall	.-472    	; 0x1888 <dsp_customchar>
    1a60:	81 2c       	mov	r8, r1
    1a62:	a1 2c       	mov	r10, r1
    1a64:	c1 2c       	mov	r12, r1
    1a66:	e1 2c       	mov	r14, r1
    1a68:	0f ef       	ldi	r16, 0xFF	; 255
    1a6a:	2f ef       	ldi	r18, 0xFF	; 255
    1a6c:	4f ef       	ldi	r20, 0xFF	; 255
    1a6e:	6f ef       	ldi	r22, 0xFF	; 255
    1a70:	84 e0       	ldi	r24, 0x04	; 4
    1a72:	0a df       	rcall	.-492    	; 0x1888 <dsp_customchar>
    1a74:	0f 2e       	mov	r0, r31
    1a76:	ff ee       	ldi	r31, 0xEF	; 239
    1a78:	8f 2e       	mov	r8, r31
    1a7a:	f0 2d       	mov	r31, r0
    1a7c:	0f 2e       	mov	r0, r31
    1a7e:	ff ee       	ldi	r31, 0xEF	; 239
    1a80:	af 2e       	mov	r10, r31
    1a82:	f0 2d       	mov	r31, r0
    1a84:	0f 2e       	mov	r0, r31
    1a86:	ff ee       	ldi	r31, 0xEF	; 239
    1a88:	cf 2e       	mov	r12, r31
    1a8a:	f0 2d       	mov	r31, r0
    1a8c:	0f 2e       	mov	r0, r31
    1a8e:	ff ee       	ldi	r31, 0xEF	; 239
    1a90:	ef 2e       	mov	r14, r31
    1a92:	f0 2d       	mov	r31, r0
    1a94:	0f ef       	ldi	r16, 0xFF	; 255
    1a96:	2f ef       	ldi	r18, 0xFF	; 255
    1a98:	4f ef       	ldi	r20, 0xFF	; 255
    1a9a:	6f ef       	ldi	r22, 0xFF	; 255
    1a9c:	85 e0       	ldi	r24, 0x05	; 5
    1a9e:	f4 de       	rcall	.-536    	; 0x1888 <dsp_customchar>
    1aa0:	81 2c       	mov	r8, r1
    1aa2:	68 94       	set
    1aa4:	aa 24       	eor	r10, r10
    1aa6:	a1 f8       	bld	r10, 1
    1aa8:	0f 2e       	mov	r0, r31
    1aaa:	f5 e1       	ldi	r31, 0x15	; 21
    1aac:	cf 2e       	mov	r12, r31
    1aae:	f0 2d       	mov	r31, r0
    1ab0:	0f 2e       	mov	r0, r31
    1ab2:	fa e0       	ldi	r31, 0x0A	; 10
    1ab4:	ef 2e       	mov	r14, r31
    1ab6:	f0 2d       	mov	r31, r0
    1ab8:	04 e0       	ldi	r16, 0x04	; 4
    1aba:	2a e0       	ldi	r18, 0x0A	; 10
    1abc:	45 e1       	ldi	r20, 0x15	; 21
    1abe:	68 e0       	ldi	r22, 0x08	; 8
    1ac0:	86 e0       	ldi	r24, 0x06	; 6
    1ac2:	e2 de       	rcall	.-572    	; 0x1888 <dsp_customchar>
    1ac4:	00 00       	nop
    1ac6:	df 91       	pop	r29
    1ac8:	cf 91       	pop	r28
    1aca:	0f 91       	pop	r16
    1acc:	ef 90       	pop	r14
    1ace:	cf 90       	pop	r12
    1ad0:	af 90       	pop	r10
    1ad2:	8f 90       	pop	r8
    1ad4:	08 95       	ret

00001ad6 <dsp_init>:
    1ad6:	cf 93       	push	r28
    1ad8:	df 93       	push	r29
    1ada:	00 d0       	rcall	.+0      	; 0x1adc <dsp_init+0x6>
    1adc:	cd b7       	in	r28, 0x3d	; 61
    1ade:	de b7       	in	r29, 0x3e	; 62
    1ae0:	1a 82       	std	Y+2, r1	; 0x02
    1ae2:	19 82       	std	Y+1, r1	; 0x01
    1ae4:	0d c0       	rjmp	.+26     	; 0x1b00 <dsp_init+0x2a>
    1ae6:	89 81       	ldd	r24, Y+1	; 0x01
    1ae8:	9a 81       	ldd	r25, Y+2	; 0x02
    1aea:	80 50       	subi	r24, 0x00	; 0
    1aec:	9f 4f       	sbci	r25, 0xFF	; 255
    1aee:	fc 01       	movw	r30, r24
    1af0:	80 81       	ld	r24, Z
    1af2:	60 e0       	ldi	r22, 0x00	; 0
    1af4:	7a de       	rcall	.-780    	; 0x17ea <dsp_writedata>
    1af6:	89 81       	ldd	r24, Y+1	; 0x01
    1af8:	9a 81       	ldd	r25, Y+2	; 0x02
    1afa:	01 96       	adiw	r24, 0x01	; 1
    1afc:	9a 83       	std	Y+2, r25	; 0x02
    1afe:	89 83       	std	Y+1, r24	; 0x01
    1b00:	89 81       	ldd	r24, Y+1	; 0x01
    1b02:	9a 81       	ldd	r25, Y+2	; 0x02
    1b04:	07 97       	sbiw	r24, 0x07	; 7
    1b06:	7c f3       	brlt	.-34     	; 0x1ae6 <dsp_init+0x10>
    1b08:	00 00       	nop
    1b0a:	0f 90       	pop	r0
    1b0c:	0f 90       	pop	r0
    1b0e:	df 91       	pop	r29
    1b10:	cf 91       	pop	r28
    1b12:	08 95       	ret

00001b14 <selftest>:
    1b14:	cf 93       	push	r28
    1b16:	df 93       	push	r29
    1b18:	cd b7       	in	r28, 0x3d	; 61
    1b1a:	de b7       	in	r29, 0x3e	; 62
    1b1c:	80 91 21 02 	lds	r24, 0x0221	; 0x800221 <systime_selftest>
    1b20:	90 91 22 02 	lds	r25, 0x0222	; 0x800222 <systime_selftest+0x1>
    1b24:	a0 91 23 02 	lds	r26, 0x0223	; 0x800223 <systime_selftest+0x2>
    1b28:	b0 91 24 02 	lds	r27, 0x0224	; 0x800224 <systime_selftest+0x3>
    1b2c:	84 52       	subi	r24, 0x24	; 36
    1b2e:	9a 4f       	sbci	r25, 0xFA	; 250
    1b30:	af 4f       	sbci	r26, 0xFF	; 255
    1b32:	bf 4f       	sbci	r27, 0xFF	; 255
    1b34:	9c 01       	movw	r18, r24
    1b36:	ad 01       	movw	r20, r26
    1b38:	80 91 34 02 	lds	r24, 0x0234	; 0x800234 <sys_time>
    1b3c:	90 91 35 02 	lds	r25, 0x0235	; 0x800235 <sys_time+0x1>
    1b40:	a0 91 36 02 	lds	r26, 0x0236	; 0x800236 <sys_time+0x2>
    1b44:	b0 91 37 02 	lds	r27, 0x0237	; 0x800237 <sys_time+0x3>
    1b48:	28 17       	cp	r18, r24
    1b4a:	39 07       	cpc	r19, r25
    1b4c:	4a 07       	cpc	r20, r26
    1b4e:	5b 07       	cpc	r21, r27
    1b50:	d8 f0       	brcs	.+54     	; 0x1b88 <selftest+0x74>
    1b52:	20 e0       	ldi	r18, 0x00	; 0
    1b54:	40 e0       	ldi	r20, 0x00	; 0
    1b56:	6c e0       	ldi	r22, 0x0C	; 12
    1b58:	71 e0       	ldi	r23, 0x01	; 1
    1b5a:	80 e0       	ldi	r24, 0x00	; 0
    1b5c:	93 d8       	rcall	.-3802   	; 0xc84 <string_to_digit>
    1b5e:	21 e0       	ldi	r18, 0x01	; 1
    1b60:	40 e0       	ldi	r20, 0x00	; 0
    1b62:	61 e2       	ldi	r22, 0x21	; 33
    1b64:	71 e0       	ldi	r23, 0x01	; 1
    1b66:	80 e0       	ldi	r24, 0x00	; 0
    1b68:	8d d8       	rcall	.-3814   	; 0xc84 <string_to_digit>
    1b6a:	22 e0       	ldi	r18, 0x02	; 2
    1b6c:	40 e0       	ldi	r20, 0x00	; 0
    1b6e:	66 e3       	ldi	r22, 0x36	; 54
    1b70:	71 e0       	ldi	r23, 0x01	; 1
    1b72:	80 e0       	ldi	r24, 0x00	; 0
    1b74:	87 d8       	rcall	.-3826   	; 0xc84 <string_to_digit>
    1b76:	23 e0       	ldi	r18, 0x03	; 3
    1b78:	40 e0       	ldi	r20, 0x00	; 0
    1b7a:	6b e4       	ldi	r22, 0x4B	; 75
    1b7c:	71 e0       	ldi	r23, 0x01	; 1
    1b7e:	80 e0       	ldi	r24, 0x00	; 0
    1b80:	81 d8       	rcall	.-3838   	; 0xc84 <string_to_digit>
    1b82:	80 e0       	ldi	r24, 0x00	; 0
    1b84:	cc de       	rcall	.-616    	; 0x191e <dsp_write>
    1b86:	35 c0       	rjmp	.+106    	; 0x1bf2 <selftest+0xde>
    1b88:	80 91 21 02 	lds	r24, 0x0221	; 0x800221 <systime_selftest>
    1b8c:	90 91 22 02 	lds	r25, 0x0222	; 0x800222 <systime_selftest+0x1>
    1b90:	a0 91 23 02 	lds	r26, 0x0223	; 0x800223 <systime_selftest+0x2>
    1b94:	b0 91 24 02 	lds	r27, 0x0224	; 0x800224 <systime_selftest+0x3>
    1b98:	8c 56       	subi	r24, 0x6C	; 108
    1b9a:	9e 4e       	sbci	r25, 0xEE	; 238
    1b9c:	af 4f       	sbci	r26, 0xFF	; 255
    1b9e:	bf 4f       	sbci	r27, 0xFF	; 255
    1ba0:	9c 01       	movw	r18, r24
    1ba2:	ad 01       	movw	r20, r26
    1ba4:	80 91 34 02 	lds	r24, 0x0234	; 0x800234 <sys_time>
    1ba8:	90 91 35 02 	lds	r25, 0x0235	; 0x800235 <sys_time+0x1>
    1bac:	a0 91 36 02 	lds	r26, 0x0236	; 0x800236 <sys_time+0x2>
    1bb0:	b0 91 37 02 	lds	r27, 0x0237	; 0x800237 <sys_time+0x3>
    1bb4:	28 17       	cp	r18, r24
    1bb6:	39 07       	cpc	r19, r25
    1bb8:	4a 07       	cpc	r20, r26
    1bba:	5b 07       	cpc	r21, r27
    1bbc:	d0 f0       	brcs	.+52     	; 0x1bf2 <selftest+0xde>
    1bbe:	20 e0       	ldi	r18, 0x00	; 0
    1bc0:	40 e0       	ldi	r20, 0x00	; 0
    1bc2:	60 e6       	ldi	r22, 0x60	; 96
    1bc4:	71 e0       	ldi	r23, 0x01	; 1
    1bc6:	80 e0       	ldi	r24, 0x00	; 0
    1bc8:	5d d8       	rcall	.-3910   	; 0xc84 <string_to_digit>
    1bca:	21 e0       	ldi	r18, 0x01	; 1
    1bcc:	40 e0       	ldi	r20, 0x00	; 0
    1bce:	65 e7       	ldi	r22, 0x75	; 117
    1bd0:	71 e0       	ldi	r23, 0x01	; 1
    1bd2:	80 e0       	ldi	r24, 0x00	; 0
    1bd4:	57 d8       	rcall	.-3922   	; 0xc84 <string_to_digit>
    1bd6:	22 e0       	ldi	r18, 0x02	; 2
    1bd8:	40 e0       	ldi	r20, 0x00	; 0
    1bda:	6a e8       	ldi	r22, 0x8A	; 138
    1bdc:	71 e0       	ldi	r23, 0x01	; 1
    1bde:	80 e0       	ldi	r24, 0x00	; 0
    1be0:	51 d8       	rcall	.-3934   	; 0xc84 <string_to_digit>
    1be2:	23 e0       	ldi	r18, 0x03	; 3
    1be4:	40 e0       	ldi	r20, 0x00	; 0
    1be6:	6f e9       	ldi	r22, 0x9F	; 159
    1be8:	71 e0       	ldi	r23, 0x01	; 1
    1bea:	80 e0       	ldi	r24, 0x00	; 0
    1bec:	4b d8       	rcall	.-3946   	; 0xc84 <string_to_digit>
    1bee:	80 e0       	ldi	r24, 0x00	; 0
    1bf0:	96 de       	rcall	.-724    	; 0x191e <dsp_write>
    1bf2:	80 91 25 02 	lds	r24, 0x0225	; 0x800225 <LEDS_on>
    1bf6:	48 2f       	mov	r20, r24
    1bf8:	50 e0       	ldi	r21, 0x00	; 0
    1bfa:	24 e9       	ldi	r18, 0x94	; 148
    1bfc:	31 e0       	ldi	r19, 0x01	; 1
    1bfe:	42 9f       	mul	r20, r18
    1c00:	c0 01       	movw	r24, r0
    1c02:	43 9f       	mul	r20, r19
    1c04:	90 0d       	add	r25, r0
    1c06:	52 9f       	mul	r21, r18
    1c08:	90 0d       	add	r25, r0
    1c0a:	11 24       	eor	r1, r1
    1c0c:	9c 01       	movw	r18, r24
    1c0e:	99 0f       	add	r25, r25
    1c10:	44 0b       	sbc	r20, r20
    1c12:	55 0b       	sbc	r21, r21
    1c14:	80 91 21 02 	lds	r24, 0x0221	; 0x800221 <systime_selftest>
    1c18:	90 91 22 02 	lds	r25, 0x0222	; 0x800222 <systime_selftest+0x1>
    1c1c:	a0 91 23 02 	lds	r26, 0x0223	; 0x800223 <systime_selftest+0x2>
    1c20:	b0 91 24 02 	lds	r27, 0x0224	; 0x800224 <systime_selftest+0x3>
    1c24:	82 0f       	add	r24, r18
    1c26:	93 1f       	adc	r25, r19
    1c28:	a4 1f       	adc	r26, r20
    1c2a:	b5 1f       	adc	r27, r21
    1c2c:	9c 01       	movw	r18, r24
    1c2e:	ad 01       	movw	r20, r26
    1c30:	80 91 34 02 	lds	r24, 0x0234	; 0x800234 <sys_time>
    1c34:	90 91 35 02 	lds	r25, 0x0235	; 0x800235 <sys_time+0x1>
    1c38:	a0 91 36 02 	lds	r26, 0x0236	; 0x800236 <sys_time+0x2>
    1c3c:	b0 91 37 02 	lds	r27, 0x0237	; 0x800237 <sys_time+0x3>
    1c40:	28 17       	cp	r18, r24
    1c42:	39 07       	cpc	r19, r25
    1c44:	4a 07       	cpc	r20, r26
    1c46:	5b 07       	cpc	r21, r27
    1c48:	98 f4       	brcc	.+38     	; 0x1c70 <selftest+0x15c>
    1c4a:	80 91 25 02 	lds	r24, 0x0225	; 0x800225 <LEDS_on>
    1c4e:	86 30       	cpi	r24, 0x06	; 6
    1c50:	20 f4       	brcc	.+8      	; 0x1c5a <selftest+0x146>
    1c52:	80 91 25 02 	lds	r24, 0x0225	; 0x800225 <LEDS_on>
    1c56:	3b dd       	rcall	.-1418   	; 0x16ce <led_left_top_bar_select>
    1c58:	06 c0       	rjmp	.+12     	; 0x1c66 <selftest+0x152>
    1c5a:	85 e0       	ldi	r24, 0x05	; 5
    1c5c:	38 dd       	rcall	.-1424   	; 0x16ce <led_left_top_bar_select>
    1c5e:	80 91 25 02 	lds	r24, 0x0225	; 0x800225 <LEDS_on>
    1c62:	85 50       	subi	r24, 0x05	; 5
    1c64:	70 dd       	rcall	.-1312   	; 0x1746 <led_right_top_bar_select>
    1c66:	80 91 25 02 	lds	r24, 0x0225	; 0x800225 <LEDS_on>
    1c6a:	8f 5f       	subi	r24, 0xFF	; 255
    1c6c:	80 93 25 02 	sts	0x0225, r24	; 0x800225 <LEDS_on>
    1c70:	00 00       	nop
    1c72:	df 91       	pop	r29
    1c74:	cf 91       	pop	r28
    1c76:	08 95       	ret

00001c78 <error_handling>:
    1c78:	cf 93       	push	r28
    1c7a:	df 93       	push	r29
    1c7c:	1f 92       	push	r1
    1c7e:	cd b7       	in	r28, 0x3d	; 61
    1c80:	de b7       	in	r29, 0x3e	; 62
    1c82:	19 82       	std	Y+1, r1	; 0x01
    1c84:	23 e0       	ldi	r18, 0x03	; 3
    1c86:	30 e0       	ldi	r19, 0x00	; 0
    1c88:	40 e0       	ldi	r20, 0x00	; 0
    1c8a:	50 e0       	ldi	r21, 0x00	; 0
    1c8c:	64 eb       	ldi	r22, 0xB4	; 180
    1c8e:	71 e0       	ldi	r23, 0x01	; 1
    1c90:	80 e0       	ldi	r24, 0x00	; 0
    1c92:	90 e0       	ldi	r25, 0x00	; 0
    1c94:	0e 94 42 06 	call	0xc84	; 0xc84 <string_to_digit>
    1c98:	80 91 dc 01 	lds	r24, 0x01DC	; 0x8001dc <CLT>
    1c9c:	90 91 dd 01 	lds	r25, 0x01DD	; 0x8001dd <CLT+0x1>
    1ca0:	83 37       	cpi	r24, 0x73	; 115
    1ca2:	91 05       	cpc	r25, r1
    1ca4:	78 f0       	brcs	.+30     	; 0x1cc4 <error_handling+0x4c>
    1ca6:	89 81       	ldd	r24, Y+1	; 0x01
    1ca8:	88 2f       	mov	r24, r24
    1caa:	90 e0       	ldi	r25, 0x00	; 0
    1cac:	23 e0       	ldi	r18, 0x03	; 3
    1cae:	30 e0       	ldi	r19, 0x00	; 0
    1cb0:	ac 01       	movw	r20, r24
    1cb2:	6f eb       	ldi	r22, 0xBF	; 191
    1cb4:	71 e0       	ldi	r23, 0x01	; 1
    1cb6:	80 e0       	ldi	r24, 0x00	; 0
    1cb8:	90 e0       	ldi	r25, 0x00	; 0
    1cba:	0e 94 42 06 	call	0xc84	; 0xc84 <string_to_digit>
    1cbe:	89 81       	ldd	r24, Y+1	; 0x01
    1cc0:	8c 5f       	subi	r24, 0xFC	; 252
    1cc2:	89 83       	std	Y+1, r24	; 0x01
    1cc4:	80 91 dc 01 	lds	r24, 0x01DC	; 0x8001dc <CLT>
    1cc8:	90 91 dd 01 	lds	r25, 0x01DD	; 0x8001dd <CLT+0x1>
    1ccc:	31 e0       	ldi	r19, 0x01	; 1
    1cce:	cc 97       	sbiw	r24, 0x3c	; 60
    1cd0:	08 f4       	brcc	.+2      	; 0x1cd4 <error_handling+0x5c>
    1cd2:	30 e0       	ldi	r19, 0x00	; 0
    1cd4:	89 81       	ldd	r24, Y+1	; 0x01
    1cd6:	88 2f       	mov	r24, r24
    1cd8:	90 e0       	ldi	r25, 0x00	; 0
    1cda:	04 96       	adiw	r24, 0x04	; 4
    1cdc:	21 e0       	ldi	r18, 0x01	; 1
    1cde:	0b 97       	sbiw	r24, 0x0b	; 11
    1ce0:	08 f0       	brcs	.+2      	; 0x1ce4 <error_handling+0x6c>
    1ce2:	20 e0       	ldi	r18, 0x00	; 0
    1ce4:	83 2f       	mov	r24, r19
    1ce6:	82 23       	and	r24, r18
    1ce8:	88 23       	and	r24, r24
    1cea:	79 f0       	breq	.+30     	; 0x1d0a <error_handling+0x92>
    1cec:	89 81       	ldd	r24, Y+1	; 0x01
    1cee:	88 2f       	mov	r24, r24
    1cf0:	90 e0       	ldi	r25, 0x00	; 0
    1cf2:	23 e0       	ldi	r18, 0x03	; 3
    1cf4:	30 e0       	ldi	r19, 0x00	; 0
    1cf6:	ac 01       	movw	r20, r24
    1cf8:	6f eb       	ldi	r22, 0xBF	; 191
    1cfa:	71 e0       	ldi	r23, 0x01	; 1
    1cfc:	80 e0       	ldi	r24, 0x00	; 0
    1cfe:	90 e0       	ldi	r25, 0x00	; 0
    1d00:	0e 94 42 06 	call	0xc84	; 0xc84 <string_to_digit>
    1d04:	89 81       	ldd	r24, Y+1	; 0x01
    1d06:	8c 5f       	subi	r24, 0xFC	; 252
    1d08:	89 83       	std	Y+1, r24	; 0x01
    1d0a:	89 81       	ldd	r24, Y+1	; 0x01
    1d0c:	88 23       	and	r24, r24
    1d0e:	51 f4       	brne	.+20     	; 0x1d24 <error_handling+0xac>
    1d10:	23 e0       	ldi	r18, 0x03	; 3
    1d12:	30 e0       	ldi	r19, 0x00	; 0
    1d14:	40 e0       	ldi	r20, 0x00	; 0
    1d16:	50 e0       	ldi	r21, 0x00	; 0
    1d18:	64 ec       	ldi	r22, 0xC4	; 196
    1d1a:	71 e0       	ldi	r23, 0x01	; 1
    1d1c:	80 e0       	ldi	r24, 0x00	; 0
    1d1e:	90 e0       	ldi	r25, 0x00	; 0
    1d20:	0e 94 42 06 	call	0xc84	; 0xc84 <string_to_digit>
    1d24:	00 00       	nop
    1d26:	0f 90       	pop	r0
    1d28:	df 91       	pop	r29
    1d2a:	cf 91       	pop	r28
    1d2c:	08 95       	ret

00001d2e <main>:
/*	TRANSMIT TO DEBUG END	*/


// MAIN FUNCTION
int main(void)
{
    1d2e:	ef 92       	push	r14
    1d30:	ff 92       	push	r15
    1d32:	0f 93       	push	r16
    1d34:	1f 93       	push	r17
    1d36:	cf 93       	push	r28
    1d38:	df 93       	push	r29
    1d3a:	cd b7       	in	r28, 0x3d	; 61
    1d3c:	de b7       	in	r29, 0x3e	; 62
	//Init and config part
	
	port_config();
    1d3e:	b8 d3       	rcall	.+1904   	; 0x24b0 <port_config>
	sys_timer_config();
    1d40:	2d d4       	rcall	.+2138   	; 0x259c <sys_timer_config>
    1d42:	0e 94 60 02 	call	0x4c0	; 0x4c0 <can_init_messages>
	can_init_messages();
	dsp_init();
    1d46:	c7 de       	rcall	.-626    	; 0x1ad6 <dsp_init>
    1d48:	39 de       	rcall	.-910    	; 0x19bc <dsp_definechars>
	dsp_definechars();
    1d4a:	0e 94 a7 00 	call	0x14e	; 0x14e <can_cfg>
	can_cfg();
    1d4e:	89 e9       	ldi	r24, 0x99	; 153
    1d50:	91 e0       	ldi	r25, 0x01	; 1
	
	/*	TRANSMIT TO DEBUG START	*/

	mob_to_transmit.mob_id = 0x199;
    1d52:	90 93 50 04 	sts	0x0450, r25	; 0x800450 <mob_to_transmit+0x1>
    1d56:	80 93 4f 04 	sts	0x044F, r24	; 0x80044f <mob_to_transmit>
    1d5a:	10 92 52 04 	sts	0x0452, r1	; 0x800452 <mob_to_transmit+0x3>
	mob_to_transmit.mob_idmask = 0;
    1d5e:	10 92 51 04 	sts	0x0451, r1	; 0x800451 <mob_to_transmit+0x2>
    1d62:	10 92 53 04 	sts	0x0453, r1	; 0x800453 <mob_to_transmit+0x4>
	mob_to_transmit.mob_number = 0;
    1d66:	10 92 47 04 	sts	0x0447, r1	; 0x800447 <mob_0_data>
	
	mob_0_data[0] = 0;
    1d6a:	82 e0       	ldi	r24, 0x02	; 2
    1d6c:	80 93 48 04 	sts	0x0448, r24	; 0x800448 <mob_0_data+0x1>
	mob_0_data[1] = 2;
    1d70:	83 e0       	ldi	r24, 0x03	; 3
    1d72:	80 93 49 04 	sts	0x0449, r24	; 0x800449 <mob_0_data+0x2>
	mob_0_data[2] = 3;
    1d76:	84 e0       	ldi	r24, 0x04	; 4
    1d78:	80 93 4a 04 	sts	0x044A, r24	; 0x80044a <mob_0_data+0x3>
	mob_0_data[3] = 4;
    1d7c:	85 e0       	ldi	r24, 0x05	; 5
    1d7e:	80 93 4b 04 	sts	0x044B, r24	; 0x80044b <mob_0_data+0x4>
	mob_0_data[4] = 5;
    1d82:	86 e0       	ldi	r24, 0x06	; 6
    1d84:	80 93 4c 04 	sts	0x044C, r24	; 0x80044c <mob_0_data+0x5>
	mob_0_data[5] = 6;
    1d88:	87 e0       	ldi	r24, 0x07	; 7
    1d8a:	80 93 4d 04 	sts	0x044D, r24	; 0x80044d <mob_0_data+0x6>
	mob_0_data[6] = 7;
    1d8e:	88 e0       	ldi	r24, 0x08	; 8
	mob_0_data[7] = 8;
    1d90:	80 93 4e 04 	sts	0x044E, r24	; 0x80044e <mob_0_data+0x7>
    1d94:	d0 da       	rcall	.-2656   	; 0x1336 <dsp_clear>

	/*	TRANSMIT TO DEBUG END	*/
	
	dsp_clear();
    1d96:	78 94       	sei
    1d98:	80 91 34 02 	lds	r24, 0x0234	; 0x800234 <sys_time>
	sei();
	systime_selftest = sys_time;
    1d9c:	90 91 35 02 	lds	r25, 0x0235	; 0x800235 <sys_time+0x1>
    1da0:	a0 91 36 02 	lds	r26, 0x0236	; 0x800236 <sys_time+0x2>
    1da4:	b0 91 37 02 	lds	r27, 0x0237	; 0x800237 <sys_time+0x3>
    1da8:	90 93 22 02 	sts	0x0222, r25	; 0x800222 <systime_selftest+0x1>
    1dac:	80 93 21 02 	sts	0x0221, r24	; 0x800221 <systime_selftest>
    1db0:	01 c0       	rjmp	.+2      	; 0x1db4 <main+0x86>
	
	while (systime_selftest+selftest_time*4 >= sys_time)
    1db2:	b0 de       	rcall	.-672    	; 0x1b14 <selftest>
	{
		selftest();
    1db4:	80 91 21 02 	lds	r24, 0x0221	; 0x800221 <systime_selftest>
	
	dsp_clear();
	sei();
	systime_selftest = sys_time;
	
	while (systime_selftest+selftest_time*4 >= sys_time)
    1db8:	90 91 22 02 	lds	r25, 0x0222	; 0x800222 <systime_selftest+0x1>
    1dbc:	80 59       	subi	r24, 0x90	; 144
    1dbe:	98 4e       	sbci	r25, 0xE8	; 232
    1dc0:	9c 01       	movw	r18, r24
    1dc2:	99 0f       	add	r25, r25
    1dc4:	44 0b       	sbc	r20, r20
    1dc6:	55 0b       	sbc	r21, r21
    1dc8:	80 91 34 02 	lds	r24, 0x0234	; 0x800234 <sys_time>
    1dcc:	90 91 35 02 	lds	r25, 0x0235	; 0x800235 <sys_time+0x1>
    1dd0:	a0 91 36 02 	lds	r26, 0x0236	; 0x800236 <sys_time+0x2>
    1dd4:	b0 91 37 02 	lds	r27, 0x0237	; 0x800237 <sys_time+0x3>
    1dd8:	28 17       	cp	r18, r24
    1dda:	39 07       	cpc	r19, r25
    1ddc:	4a 07       	cpc	r20, r26
    1dde:	5b 07       	cpc	r21, r27
    1de0:	40 f7       	brcc	.-48     	; 0x1db2 <main+0x84>
	{
		selftest();
	}
	LED_Blink(10,3000);
    1de2:	68 eb       	ldi	r22, 0xB8	; 184
    1de4:	7b e0       	ldi	r23, 0x0B	; 11
    1de6:	8a e0       	ldi	r24, 0x0A	; 10
    1de8:	1e d2       	rcall	.+1084   	; 0x2226 <LED_Blink>
    1dea:	a5 da       	rcall	.-2742   	; 0x1336 <dsp_clear>
	
	dsp_clear();
    1dec:	10 db       	rcall	.-2528   	; 0x140e <dsp_arrayinit_static>
    1dee:	80 91 4f 02 	lds	r24, 0x024F	; 0x80024f <update_data>
	
	dsp_arrayinit_static();
    1df2:	81 32       	cpi	r24, 0x21	; 33

	
	//Loop
	while(1){

		if(update_data>=33){ //refresh rate for display about 30Hz
    1df4:	08 f4       	brcc	.+2      	; 0x1df8 <main+0xca>
    1df6:	d8 c1       	rjmp	.+944    	; 0x21a8 <main+0x47a>
    1df8:	10 92 4f 02 	sts	0x024F, r1	; 0x80024f <update_data>
    1dfc:	80 91 32 02 	lds	r24, 0x0232	; 0x800232 <dsp_mde>
			update_data = 0;
    1e00:	88 23       	and	r24, r24
			
			if (dsp_mde == 0){ //DiSPlay Mode 0 = Home
    1e02:	09 f0       	breq	.+2      	; 0x1e06 <main+0xd8>
    1e04:	3f c1       	rjmp	.+638    	; 0x2084 <main+0x356>
    1e06:	80 91 d4 01 	lds	r24, 0x01D4	; 0x8001d4 <TSVoltage>
    1e0a:	90 91 d5 01 	lds	r25, 0x01D5	; 0x8001d5 <TSVoltage+0x1>
				num_to_digit(0,TSVoltage,0,3,5,0);
    1e0e:	e1 2c       	mov	r14, r1
    1e10:	05 e0       	ldi	r16, 0x05	; 5
    1e12:	23 e0       	ldi	r18, 0x03	; 3
    1e14:	40 e0       	ldi	r20, 0x00	; 0
    1e16:	bc 01       	movw	r22, r24
    1e18:	80 e0       	ldi	r24, 0x00	; 0
    1e1a:	0e 94 96 06 	call	0xd2c	; 0xd2c <num_to_digit>
    1e1e:	80 91 1b 02 	lds	r24, 0x021B	; 0x80021b <GPS_Speed>
    1e22:	90 91 1c 02 	lds	r25, 0x021C	; 0x80021c <GPS_Speed+0x1>
				num_to_digit(0,GPS_Speed,0,3,14,0);
    1e26:	e1 2c       	mov	r14, r1
    1e28:	0e e0       	ldi	r16, 0x0E	; 14
    1e2a:	23 e0       	ldi	r18, 0x03	; 3
    1e2c:	40 e0       	ldi	r20, 0x00	; 0
    1e2e:	bc 01       	movw	r22, r24
    1e30:	80 e0       	ldi	r24, 0x00	; 0
    1e32:	0e 94 96 06 	call	0xd2c	; 0xd2c <num_to_digit>
    1e36:	80 91 dc 01 	lds	r24, 0x01DC	; 0x8001dc <CLT>
    1e3a:	90 91 dd 01 	lds	r25, 0x01DD	; 0x8001dd <CLT+0x1>
				num_to_digit(0,CLT,0,2,6,1);//writes the number 121 for clt TEST ONLY!!!
    1e3e:	ee 24       	eor	r14, r14
    1e40:	e3 94       	inc	r14
    1e42:	06 e0       	ldi	r16, 0x06	; 6
    1e44:	22 e0       	ldi	r18, 0x02	; 2
    1e46:	40 e0       	ldi	r20, 0x00	; 0
    1e48:	bc 01       	movw	r22, r24
    1e4a:	80 e0       	ldi	r24, 0x00	; 0
    1e4c:	0e 94 96 06 	call	0xd2c	; 0xd2c <num_to_digit>
    1e50:	80 91 d6 01 	lds	r24, 0x01D6	; 0x8001d6 <AccumulatorTemperature>
    1e54:	90 91 d7 01 	lds	r25, 0x01D7	; 0x8001d7 <AccumulatorTemperature+0x1>
				num_to_digit(0,AccumulatorTemperature,0,2,15,1);
    1e58:	ee 24       	eor	r14, r14
    1e5a:	e3 94       	inc	r14
    1e5c:	0f e0       	ldi	r16, 0x0F	; 15
    1e5e:	22 e0       	ldi	r18, 0x02	; 2
    1e60:	40 e0       	ldi	r20, 0x00	; 0
    1e62:	bc 01       	movw	r22, r24
    1e64:	80 e0       	ldi	r24, 0x00	; 0
    1e66:	0e 94 96 06 	call	0xd2c	; 0xd2c <num_to_digit>
    1e6a:	80 91 d8 01 	lds	r24, 0x01D8	; 0x8001d8 <SOC>
    1e6e:	90 91 d9 01 	lds	r25, 0x01D9	; 0x8001d9 <SOC+0x1>
				num_to_digit(0,SOC,0,3,14,2);
    1e72:	68 94       	set
    1e74:	ee 24       	eor	r14, r14
    1e76:	e1 f8       	bld	r14, 1
    1e78:	0e e0       	ldi	r16, 0x0E	; 14
    1e7a:	23 e0       	ldi	r18, 0x03	; 3
    1e7c:	40 e0       	ldi	r20, 0x00	; 0
    1e7e:	bc 01       	movw	r22, r24
    1e80:	80 e0       	ldi	r24, 0x00	; 0
    1e82:	0e 94 96 06 	call	0xd2c	; 0xd2c <num_to_digit>
    1e86:	80 91 da 01 	lds	r24, 0x01DA	; 0x8001da <LVSVoltage>
    1e8a:	90 91 db 01 	lds	r25, 0x01DB	; 0x8001db <LVSVoltage+0x1>
				num_to_digit(0,LVSVoltage,0,2,15,3);
    1e8e:	0f 2e       	mov	r0, r31
    1e90:	f3 e0       	ldi	r31, 0x03	; 3
    1e92:	ef 2e       	mov	r14, r31
    1e94:	f0 2d       	mov	r31, r0
    1e96:	0f e0       	ldi	r16, 0x0F	; 15
    1e98:	22 e0       	ldi	r18, 0x02	; 2
    1e9a:	40 e0       	ldi	r20, 0x00	; 0
    1e9c:	bc 01       	movw	r22, r24
    1e9e:	80 e0       	ldi	r24, 0x00	; 0
    1ea0:	0e 94 96 06 	call	0xd2c	; 0xd2c <num_to_digit>
    1ea4:	80 91 d3 01 	lds	r24, 0x01D3	; 0x8001d3 <Rotary_Encoder_Left>
    1ea8:	88 23       	and	r24, r24

//-------------------------- Sitching between brake bias or LC Active------------------------------
					if (Rotary_Encoder_Left == 0){
    1eaa:	71 f4       	brne	.+28     	; 0x1ec8 <main+0x19a>
    1eac:	22 e0       	ldi	r18, 0x02	; 2
    1eae:	40 e0       	ldi	r20, 0x00	; 0
    1eb0:	67 ec       	ldi	r22, 0xC7	; 199
						string_to_digit(0,"LC ACTIVE",0,2);
    1eb2:	71 e0       	ldi	r23, 0x01	; 1
    1eb4:	80 e0       	ldi	r24, 0x00	; 0
    1eb6:	0e 94 42 06 	call	0xc84	; 0xc84 <string_to_digit>
    1eba:	81 e0       	ldi	r24, 0x01	; 1
    1ebc:	80 93 0b 01 	sts	0x010B, r24	; 0x80010b <LC_change>
						LC_change = 1;
    1ec0:	81 e0       	ldi	r24, 0x01	; 1
    1ec2:	80 93 3c 02 	sts	0x023C, r24	; 0x80023c <LC_Active>
						LC_Active =TRUE;
    1ec6:	2b c0       	rjmp	.+86     	; 0x1f1e <main+0x1f0>
    1ec8:	10 92 3c 02 	sts	0x023C, r1	; 0x80023c <LC_Active>
    1ecc:	80 91 0b 01 	lds	r24, 0x010B	; 0x80010b <LC_change>
					}
					else{
						LC_Active = FALSE;
    1ed0:	88 23       	and	r24, r24
						//on first iteration clear the window
						if ( LC_change > 0){
    1ed2:	91 f0       	breq	.+36     	; 0x1ef8 <main+0x1ca>
    1ed4:	80 e1       	ldi	r24, 0x10	; 16
    1ed6:	80 93 31 03 	sts	0x0331, r24	; 0x800331 <dsp_data+0x2a>
							dsp_data[0][2][2] = 0x10;
    1eda:	80 e1       	ldi	r24, 0x10	; 16
    1edc:	80 93 32 03 	sts	0x0332, r24	; 0x800332 <dsp_data+0x2b>
							dsp_data[0][2][3] = 0x10;
    1ee0:	80 e1       	ldi	r24, 0x10	; 16
    1ee2:	80 93 33 03 	sts	0x0333, r24	; 0x800333 <dsp_data+0x2c>
							dsp_data[0][2][4] = 0x10;
    1ee6:	80 e1       	ldi	r24, 0x10	; 16
    1ee8:	80 93 34 03 	sts	0x0334, r24	; 0x800334 <dsp_data+0x2d>
							dsp_data[0][2][5] = 0x10;
    1eec:	80 91 0b 01 	lds	r24, 0x010B	; 0x80010b <LC_change>
							LC_change--;
    1ef0:	81 50       	subi	r24, 0x01	; 1
    1ef2:	80 93 0b 01 	sts	0x010B, r24	; 0x80010b <LC_change>
    1ef6:	8b da       	rcall	.-2794   	; 0x140e <dsp_arrayinit_static>
    1ef8:	90 91 e2 01 	lds	r25, 0x01E2	; 0x8001e2 <BPR>
							dsp_arrayinit_static();
    1efc:	80 91 e1 01 	lds	r24, 0x01E1	; 0x8001e1 <BPF>
						}
						num_to_digit(0,calc_BB(BPF,BPR),0,2,6,2);//writes the number 55 for BB  TEST ONLY!!!
    1f00:	69 2f       	mov	r22, r25
    1f02:	0e 94 c3 05 	call	0xb86	; 0xb86 <calc_BB>
    1f06:	88 2f       	mov	r24, r24
    1f08:	90 e0       	ldi	r25, 0x00	; 0
    1f0a:	68 94       	set
    1f0c:	ee 24       	eor	r14, r14
    1f0e:	e1 f8       	bld	r14, 1
    1f10:	06 e0       	ldi	r16, 0x06	; 6
    1f12:	22 e0       	ldi	r18, 0x02	; 2
    1f14:	40 e0       	ldi	r20, 0x00	; 0
    1f16:	bc 01       	movw	r22, r24
    1f18:	80 e0       	ldi	r24, 0x00	; 0
    1f1a:	0e 94 96 06 	call	0xd2c	; 0xd2c <num_to_digit>
    1f1e:	20 91 ec 01 	lds	r18, 0x01EC	; 0x8001ec <Laptime>
    1f22:	30 91 ed 01 	lds	r19, 0x01ED	; 0x8001ed <Laptime+0x1>
					}
//--------------------------------Switching between error indicator and diff time ---------------------------------------
				difftime = Laptime-Besttime;//calculate the differenz from your best time from your last
    1f26:	40 91 ee 01 	lds	r20, 0x01EE	; 0x8001ee <Laptime+0x2>
    1f2a:	50 91 ef 01 	lds	r21, 0x01EF	; 0x8001ef <Laptime+0x3>
    1f2e:	80 91 fb 01 	lds	r24, 0x01FB	; 0x8001fb <Besttime>
    1f32:	90 91 fc 01 	lds	r25, 0x01FC	; 0x8001fc <Besttime+0x1>
    1f36:	a0 91 fd 01 	lds	r26, 0x01FD	; 0x8001fd <Besttime+0x2>
    1f3a:	b0 91 fe 01 	lds	r27, 0x01FE	; 0x8001fe <Besttime+0x3>
    1f3e:	79 01       	movw	r14, r18
    1f40:	8a 01       	movw	r16, r20
    1f42:	e8 1a       	sub	r14, r24
    1f44:	f9 0a       	sbc	r15, r25
    1f46:	0a 0b       	sbc	r16, r26
    1f48:	1b 0b       	sbc	r17, r27
    1f4a:	d8 01       	movw	r26, r16
    1f4c:	c7 01       	movw	r24, r14
    1f4e:	80 93 3d 02 	sts	0x023D, r24	; 0x80023d <difftime>
    1f52:	90 93 3e 02 	sts	0x023E, r25	; 0x80023e <difftime+0x1>
    1f56:	a0 93 3f 02 	sts	0x023F, r26	; 0x80023f <difftime+0x2>
    1f5a:	b0 93 40 02 	sts	0x0240, r27	; 0x800240 <difftime+0x3>
    1f5e:	20 91 41 02 	lds	r18, 0x0241	; 0x800241 <difftime_old>
    1f62:	30 91 42 02 	lds	r19, 0x0242	; 0x800242 <difftime_old+0x1>
				
				if (difftime_old != difftime){//If your diff time has been updated (new Lap) we want to show your diff on the homescreen
    1f66:	40 91 43 02 	lds	r20, 0x0243	; 0x800243 <difftime_old+0x2>
    1f6a:	50 91 44 02 	lds	r21, 0x0244	; 0x800244 <difftime_old+0x3>
    1f6e:	80 91 3d 02 	lds	r24, 0x023D	; 0x80023d <difftime>
    1f72:	90 91 3e 02 	lds	r25, 0x023E	; 0x80023e <difftime+0x1>
    1f76:	a0 91 3f 02 	lds	r26, 0x023F	; 0x80023f <difftime+0x2>
    1f7a:	b0 91 40 02 	lds	r27, 0x0240	; 0x800240 <difftime+0x3>
    1f7e:	28 17       	cp	r18, r24
    1f80:	39 07       	cpc	r19, r25
    1f82:	4a 07       	cpc	r20, r26
    1f84:	5b 07       	cpc	r21, r27
    1f86:	a1 f1       	breq	.+104    	; 0x1ff0 <main+0x2c2>
    1f88:	80 91 34 02 	lds	r24, 0x0234	; 0x800234 <sys_time>
    1f8c:	90 91 35 02 	lds	r25, 0x0235	; 0x800235 <sys_time+0x1>
					systime_time_indicator = sys_time;
    1f90:	a0 91 36 02 	lds	r26, 0x0236	; 0x800236 <sys_time+0x2>
    1f94:	b0 91 37 02 	lds	r27, 0x0237	; 0x800237 <sys_time+0x3>
    1f98:	80 93 38 02 	sts	0x0238, r24	; 0x800238 <systime_time_indicator>
    1f9c:	90 93 39 02 	sts	0x0239, r25	; 0x800239 <systime_time_indicator+0x1>
    1fa0:	a0 93 3a 02 	sts	0x023A, r26	; 0x80023a <systime_time_indicator+0x2>
    1fa4:	b0 93 3b 02 	sts	0x023B, r27	; 0x80023b <systime_time_indicator+0x3>
    1fa8:	80 91 38 02 	lds	r24, 0x0238	; 0x800238 <systime_time_indicator>
    1fac:	90 91 39 02 	lds	r25, 0x0239	; 0x800239 <systime_time_indicator+0x1>
					systime_time_indicator += time_indicator_intervall;
    1fb0:	a0 91 3a 02 	lds	r26, 0x023A	; 0x80023a <systime_time_indicator+0x2>
    1fb4:	b0 91 3b 02 	lds	r27, 0x023B	; 0x80023b <systime_time_indicator+0x3>
    1fb8:	88 57       	subi	r24, 0x78	; 120
    1fba:	9c 4e       	sbci	r25, 0xEC	; 236
    1fbc:	af 4f       	sbci	r26, 0xFF	; 255
    1fbe:	bf 4f       	sbci	r27, 0xFF	; 255
    1fc0:	80 93 38 02 	sts	0x0238, r24	; 0x800238 <systime_time_indicator>
    1fc4:	90 93 39 02 	sts	0x0239, r25	; 0x800239 <systime_time_indicator+0x1>
    1fc8:	a0 93 3a 02 	sts	0x023A, r26	; 0x80023a <systime_time_indicator+0x2>
    1fcc:	b0 93 3b 02 	sts	0x023B, r27	; 0x80023b <systime_time_indicator+0x3>
    1fd0:	80 91 3d 02 	lds	r24, 0x023D	; 0x80023d <difftime>
    1fd4:	90 91 3e 02 	lds	r25, 0x023E	; 0x80023e <difftime+0x1>
					difftime_old = difftime;
    1fd8:	a0 91 3f 02 	lds	r26, 0x023F	; 0x80023f <difftime+0x2>
    1fdc:	b0 91 40 02 	lds	r27, 0x0240	; 0x800240 <difftime+0x3>
    1fe0:	80 93 41 02 	sts	0x0241, r24	; 0x800241 <difftime_old>
    1fe4:	90 93 42 02 	sts	0x0242, r25	; 0x800242 <difftime_old+0x1>
    1fe8:	a0 93 43 02 	sts	0x0243, r26	; 0x800243 <difftime_old+0x2>
    1fec:	b0 93 44 02 	sts	0x0244, r27	; 0x800244 <difftime_old+0x3>
    1ff0:	20 91 38 02 	lds	r18, 0x0238	; 0x800238 <systime_time_indicator>
    1ff4:	30 91 39 02 	lds	r19, 0x0239	; 0x800239 <systime_time_indicator+0x1>
				}
				if (systime_time_indicator > sys_time){
    1ff8:	40 91 3a 02 	lds	r20, 0x023A	; 0x80023a <systime_time_indicator+0x2>
    1ffc:	50 91 3b 02 	lds	r21, 0x023B	; 0x80023b <systime_time_indicator+0x3>
    2000:	80 91 34 02 	lds	r24, 0x0234	; 0x800234 <sys_time>
    2004:	90 91 35 02 	lds	r25, 0x0235	; 0x800235 <sys_time+0x1>
    2008:	a0 91 36 02 	lds	r26, 0x0236	; 0x800236 <sys_time+0x2>
    200c:	b0 91 37 02 	lds	r27, 0x0237	; 0x800237 <sys_time+0x3>
    2010:	82 17       	cp	r24, r18
    2012:	93 07       	cpc	r25, r19
    2014:	a4 07       	cpc	r26, r20
    2016:	b5 07       	cpc	r27, r21
    2018:	68 f5       	brcc	.+90     	; 0x2074 <main+0x346>
    201a:	80 91 3d 02 	lds	r24, 0x023D	; 0x80023d <difftime>
    201e:	90 91 3e 02 	lds	r25, 0x023E	; 0x80023e <difftime+0x1>
					time_to_digit(0,abs(difftime),1,3);
    2022:	a0 91 3f 02 	lds	r26, 0x023F	; 0x80023f <difftime+0x2>
    2026:	b0 91 40 02 	lds	r27, 0x0240	; 0x800240 <difftime+0x3>
    202a:	99 23       	and	r25, r25
    202c:	1c f4       	brge	.+6      	; 0x2034 <main+0x306>
    202e:	91 95       	neg	r25
    2030:	81 95       	neg	r24
    2032:	91 09       	sbc	r25, r1
    2034:	09 2e       	mov	r0, r25
    2036:	00 0c       	add	r0, r0
    2038:	aa 0b       	sbc	r26, r26
    203a:	bb 0b       	sbc	r27, r27
    203c:	03 e0       	ldi	r16, 0x03	; 3
    203e:	21 e0       	ldi	r18, 0x01	; 1
    2040:	ac 01       	movw	r20, r24
    2042:	bd 01       	movw	r22, r26
    2044:	80 e0       	ldi	r24, 0x00	; 0
    2046:	0e 94 f9 07 	call	0xff2	; 0xff2 <time_to_digit>
    204a:	8a e3       	ldi	r24, 0x3A	; 58
    204c:	80 93 48 03 	sts	0x0348, r24	; 0x800348 <dsp_data+0x41>
					dsp_data[0][3][5] = ':';
    2050:	80 91 3d 02 	lds	r24, 0x023D	; 0x80023d <difftime>
    2054:	90 91 3e 02 	lds	r25, 0x023E	; 0x80023e <difftime+0x1>
					if (difftime >= 0){
    2058:	a0 91 3f 02 	lds	r26, 0x023F	; 0x80023f <difftime+0x2>
    205c:	b0 91 40 02 	lds	r27, 0x0240	; 0x800240 <difftime+0x3>
    2060:	bb 23       	and	r27, r27
    2062:	24 f0       	brlt	.+8      	; 0x206c <main+0x33e>
    2064:	8b e2       	ldi	r24, 0x2B	; 43
    2066:	80 93 43 03 	sts	0x0343, r24	; 0x800343 <dsp_data+0x3c>
						dsp_data[0][3][0] = '+';
    206a:	0c c0       	rjmp	.+24     	; 0x2084 <main+0x356>
    206c:	8d e2       	ldi	r24, 0x2D	; 45
    206e:	80 93 43 03 	sts	0x0343, r24	; 0x800343 <dsp_data+0x3c>
					}
					else{
					dsp_data[0][3][0] = '-';
    2072:	08 c0       	rjmp	.+16     	; 0x2084 <main+0x356>
    2074:	01 de       	rcall	.-1022   	; 0x1c78 <error_handling>
    2076:	23 e0       	ldi	r18, 0x03	; 3
					}
				}
				else{//If the diff time has not been updated within the the last intervall we want to show the error stuff
					error_handling();
    2078:	40 e0       	ldi	r20, 0x00	; 0
    207a:	68 e2       	ldi	r22, 0x28	; 40
					string_to_digit(0,error_indicator,0,3);					
    207c:	72 e0       	ldi	r23, 0x02	; 2
    207e:	80 e0       	ldi	r24, 0x00	; 0
    2080:	0e 94 42 06 	call	0xc84	; 0xc84 <string_to_digit>
    2084:	80 91 32 02 	lds	r24, 0x0232	; 0x800232 <dsp_mde>
    2088:	81 30       	cpi	r24, 0x01	; 1
			}
			
			
			
			
			if (dsp_mde == 1){ //debug screen
    208a:	c1 f5       	brne	.+112    	; 0x20fc <main+0x3ce>
    208c:	80 91 df 01 	lds	r24, 0x01DF	; 0x8001df <APPS1>
    2090:	88 2f       	mov	r24, r24
				num_to_digit(1,APPS1,0,3,5,1);
    2092:	90 e0       	ldi	r25, 0x00	; 0
    2094:	ee 24       	eor	r14, r14
    2096:	e3 94       	inc	r14
    2098:	05 e0       	ldi	r16, 0x05	; 5
    209a:	23 e0       	ldi	r18, 0x03	; 3
    209c:	40 e0       	ldi	r20, 0x00	; 0
    209e:	bc 01       	movw	r22, r24
    20a0:	81 e0       	ldi	r24, 0x01	; 1
    20a2:	0e 94 96 06 	call	0xd2c	; 0xd2c <num_to_digit>
    20a6:	80 91 e0 01 	lds	r24, 0x01E0	; 0x8001e0 <APPS2>
    20aa:	88 2f       	mov	r24, r24
				num_to_digit(1,APPS2,0,3,12,1);
    20ac:	90 e0       	ldi	r25, 0x00	; 0
    20ae:	ee 24       	eor	r14, r14
    20b0:	e3 94       	inc	r14
    20b2:	0c e0       	ldi	r16, 0x0C	; 12
    20b4:	23 e0       	ldi	r18, 0x03	; 3
    20b6:	40 e0       	ldi	r20, 0x00	; 0
    20b8:	bc 01       	movw	r22, r24
    20ba:	81 e0       	ldi	r24, 0x01	; 1
    20bc:	0e 94 96 06 	call	0xd2c	; 0xd2c <num_to_digit>
    20c0:	80 91 e1 01 	lds	r24, 0x01E1	; 0x8001e1 <BPF>
    20c4:	88 2f       	mov	r24, r24

				num_to_digit(1,BPF,0,2,4,3);
    20c6:	90 e0       	ldi	r25, 0x00	; 0
    20c8:	0f 2e       	mov	r0, r31
    20ca:	f3 e0       	ldi	r31, 0x03	; 3
    20cc:	ef 2e       	mov	r14, r31
    20ce:	f0 2d       	mov	r31, r0
    20d0:	04 e0       	ldi	r16, 0x04	; 4
    20d2:	22 e0       	ldi	r18, 0x02	; 2
    20d4:	40 e0       	ldi	r20, 0x00	; 0
    20d6:	bc 01       	movw	r22, r24
    20d8:	81 e0       	ldi	r24, 0x01	; 1
    20da:	0e 94 96 06 	call	0xd2c	; 0xd2c <num_to_digit>
    20de:	80 91 e2 01 	lds	r24, 0x01E2	; 0x8001e2 <BPR>
    20e2:	88 2f       	mov	r24, r24
				num_to_digit(1,BPR,0,2,10,3);				
    20e4:	90 e0       	ldi	r25, 0x00	; 0
    20e6:	0f 2e       	mov	r0, r31
    20e8:	f3 e0       	ldi	r31, 0x03	; 3
    20ea:	ef 2e       	mov	r14, r31
    20ec:	f0 2d       	mov	r31, r0
    20ee:	0a e0       	ldi	r16, 0x0A	; 10
    20f0:	22 e0       	ldi	r18, 0x02	; 2
    20f2:	40 e0       	ldi	r20, 0x00	; 0
    20f4:	bc 01       	movw	r22, r24
    20f6:	81 e0       	ldi	r24, 0x01	; 1
    20f8:	0e 94 96 06 	call	0xd2c	; 0xd2c <num_to_digit>
    20fc:	80 91 32 02 	lds	r24, 0x0232	; 0x800232 <dsp_mde>
    2100:	82 30       	cpi	r24, 0x02	; 2
			
			
			
			
			
			if (dsp_mde == 2){ //Times screen
    2102:	09 f0       	breq	.+2      	; 0x2106 <main+0x3d8>
    2104:	51 c0       	rjmp	.+162    	; 0x21a8 <main+0x47a>
    2106:	80 91 fb 01 	lds	r24, 0x01FB	; 0x8001fb <Besttime>
    210a:	90 91 fc 01 	lds	r25, 0x01FC	; 0x8001fc <Besttime+0x1>
				time_to_digit(2,Besttime,4,1); //BEST/LAP Convertes a time in ms to minutes:seconds:milliseconds
    210e:	a0 91 fd 01 	lds	r26, 0x01FD	; 0x8001fd <Besttime+0x2>
    2112:	b0 91 fe 01 	lds	r27, 0x01FE	; 0x8001fe <Besttime+0x3>
    2116:	01 e0       	ldi	r16, 0x01	; 1
    2118:	24 e0       	ldi	r18, 0x04	; 4
    211a:	ac 01       	movw	r20, r24
    211c:	bd 01       	movw	r22, r26
    211e:	82 e0       	ldi	r24, 0x02	; 2
    2120:	0e 94 f9 07 	call	0xff2	; 0xff2 <time_to_digit>
    2124:	80 91 0a 02 	lds	r24, 0x020A	; 0x80020a <Pred_time>
    2128:	90 91 0b 02 	lds	r25, 0x020B	; 0x80020b <Pred_time+0x1>
				time_to_digit(2,Pred_time,4,2); //Predicted
    212c:	a0 91 0c 02 	lds	r26, 0x020C	; 0x80020c <Pred_time+0x2>
    2130:	b0 91 0d 02 	lds	r27, 0x020D	; 0x80020d <Pred_time+0x3>
    2134:	02 e0       	ldi	r16, 0x02	; 2
    2136:	24 e0       	ldi	r18, 0x04	; 4
    2138:	ac 01       	movw	r20, r24
    213a:	bd 01       	movw	r22, r26
    213c:	82 e0       	ldi	r24, 0x02	; 2
    213e:	0e 94 f9 07 	call	0xff2	; 0xff2 <time_to_digit>
    2142:	80 91 19 02 	lds	r24, 0x0219	; 0x800219 <ODO>
    2146:	90 91 1a 02 	lds	r25, 0x021A	; 0x80021a <ODO+0x1>
				num_to_digit(2,ODO,0,3,10,3); //ODO
    214a:	0f 2e       	mov	r0, r31
    214c:	f3 e0       	ldi	r31, 0x03	; 3
    214e:	ef 2e       	mov	r14, r31
    2150:	f0 2d       	mov	r31, r0
    2152:	0a e0       	ldi	r16, 0x0A	; 10
    2154:	23 e0       	ldi	r18, 0x03	; 3
    2156:	40 e0       	ldi	r20, 0x00	; 0
    2158:	bc 01       	movw	r22, r24
    215a:	82 e0       	ldi	r24, 0x02	; 2
    215c:	0e 94 96 06 	call	0xd2c	; 0xd2c <num_to_digit>
    2160:	e1 2c       	mov	r14, r1
    2162:	03 e0       	ldi	r16, 0x03	; 3
    2164:	21 e0       	ldi	r18, 0x01	; 1
				num_to_digit(2,9,0,1,3,0);//TC setting needs to be implemented!!!
    2166:	40 e0       	ldi	r20, 0x00	; 0
    2168:	69 e0       	ldi	r22, 0x09	; 9
    216a:	70 e0       	ldi	r23, 0x00	; 0
    216c:	82 e0       	ldi	r24, 0x02	; 2
    216e:	0e 94 96 06 	call	0xd2c	; 0xd2c <num_to_digit>
    2172:	80 91 eb 01 	lds	r24, 0x01EB	; 0x8001eb <LapNumber>
    2176:	88 2f       	mov	r24, r24
				num_to_digit(2,LapNumber,0,2,3,3);//Lap number
    2178:	90 e0       	ldi	r25, 0x00	; 0
    217a:	0f 2e       	mov	r0, r31
    217c:	f3 e0       	ldi	r31, 0x03	; 3
    217e:	ef 2e       	mov	r14, r31
    2180:	f0 2d       	mov	r31, r0
    2182:	03 e0       	ldi	r16, 0x03	; 3
    2184:	22 e0       	ldi	r18, 0x02	; 2
    2186:	40 e0       	ldi	r20, 0x00	; 0
    2188:	bc 01       	movw	r22, r24
    218a:	82 e0       	ldi	r24, 0x02	; 2
    218c:	0e 94 96 06 	call	0xd2c	; 0xd2c <num_to_digit>
    2190:	80 91 1b 02 	lds	r24, 0x021B	; 0x80021b <GPS_Speed>
    2194:	90 91 1c 02 	lds	r25, 0x021C	; 0x80021c <GPS_Speed+0x1>
				num_to_digit(2,GPS_Speed,0,3,10,0);//Speed
    2198:	e1 2c       	mov	r14, r1
    219a:	0a e0       	ldi	r16, 0x0A	; 10
    219c:	23 e0       	ldi	r18, 0x03	; 3
    219e:	40 e0       	ldi	r20, 0x00	; 0
    21a0:	bc 01       	movw	r22, r24
    21a2:	82 e0       	ldi	r24, 0x02	; 2
    21a4:	0e 94 96 06 	call	0xd2c	; 0xd2c <num_to_digit>
    21a8:	80 91 50 02 	lds	r24, 0x0250	; 0x800250 <draw_data>
				
			}
		}
		if(draw_data){ //1000Hz/1ms loop
    21ac:	88 23       	and	r24, r24
    21ae:	89 f0       	breq	.+34     	; 0x21d2 <main+0x4a4>
    21b0:	80 91 32 02 	lds	r24, 0x0232	; 0x800232 <dsp_mde>
			dsp_write(dsp_mde);
    21b4:	b4 db       	rcall	.-2200   	; 0x191e <dsp_write>
    21b6:	10 92 50 02 	sts	0x0250, r1	; 0x800250 <draw_data>
			draw_data = 0;
    21ba:	62 d0       	rcall	.+196    	; 0x2280 <LED_Blink_CTRL>
    21bc:	67 e4       	ldi	r22, 0x47	; 71
			LED_Blink_CTRL();
    21be:	74 e0       	ldi	r23, 0x04	; 4
    21c0:	8f e4       	ldi	r24, 0x4F	; 79
			
			/*	TRANSMIT TO DEBUG START	*/
			
			can_tx(&mob_to_transmit, mob_0_data);
    21c2:	94 e0       	ldi	r25, 0x04	; 4
    21c4:	0e 94 cd 01 	call	0x39a	; 0x39a <can_tx>
    21c8:	80 91 47 04 	lds	r24, 0x0447	; 0x800447 <mob_0_data>
    21cc:	8f 5f       	subi	r24, 0xFF	; 255
			mob_0_data[0]++;
    21ce:	80 93 47 04 	sts	0x0447, r24	; 0x800447 <mob_0_data>
    21d2:	20 91 34 02 	lds	r18, 0x0234	; 0x800234 <sys_time>
    21d6:	30 91 35 02 	lds	r19, 0x0235	; 0x800235 <sys_time+0x1>
			
			/*	TRANSMIT TO DEBUG END	*/			
			
		}	
		if(sys_time - time_100 >= 10){//100Hz/10ms loop
    21da:	40 91 36 02 	lds	r20, 0x0236	; 0x800236 <sys_time+0x2>
    21de:	50 91 37 02 	lds	r21, 0x0237	; 0x800237 <sys_time+0x3>
    21e2:	80 91 33 02 	lds	r24, 0x0233	; 0x800233 <time_100>
    21e6:	88 2f       	mov	r24, r24
    21e8:	90 e0       	ldi	r25, 0x00	; 0
    21ea:	a0 e0       	ldi	r26, 0x00	; 0
    21ec:	b0 e0       	ldi	r27, 0x00	; 0
    21ee:	79 01       	movw	r14, r18
    21f0:	8a 01       	movw	r16, r20
    21f2:	e8 1a       	sub	r14, r24
    21f4:	f9 0a       	sbc	r15, r25
    21f6:	0a 0b       	sbc	r16, r26
    21f8:	1b 0b       	sbc	r17, r27
    21fa:	d8 01       	movw	r26, r16
    21fc:	c7 01       	movw	r24, r14
    21fe:	0a 97       	sbiw	r24, 0x0a	; 10
    2200:	a1 05       	cpc	r26, r1
    2202:	b1 05       	cpc	r27, r1
    2204:	08 f4       	brcc	.+2      	; 0x2208 <main+0x4da>
    2206:	f3 cd       	rjmp	.-1050   	; 0x1dee <main+0xc0>
    2208:	0e 94 2b 03 	call	0x656	; 0x656 <CAN_recieve>
    220c:	0e 94 79 03 	call	0x6f2	; 0x6f2 <CAN_put_data>
			CAN_recieve();
    2210:	80 91 34 02 	lds	r24, 0x0234	; 0x800234 <sys_time>
			CAN_put_data();			
    2214:	90 91 35 02 	lds	r25, 0x0235	; 0x800235 <sys_time+0x1>
			time_100 = sys_time;
    2218:	a0 91 36 02 	lds	r26, 0x0236	; 0x800236 <sys_time+0x2>
    221c:	b0 91 37 02 	lds	r27, 0x0237	; 0x800237 <sys_time+0x3>
    2220:	80 93 33 02 	sts	0x0233, r24	; 0x800233 <time_100>
    2224:	e4 cd       	rjmp	.-1080   	; 0x1dee <main+0xc0>

00002226 <LED_Blink>:
    2226:	cf 93       	push	r28
    2228:	df 93       	push	r29
			
		}
	}	
    222a:	00 d0       	rcall	.+0      	; 0x222c <LED_Blink+0x6>
}

void LED_Blink(uint8_t Anzahl_Blinks, uint16_t Zeit_fuer_Blinken){
    222c:	1f 92       	push	r1
    222e:	cd b7       	in	r28, 0x3d	; 61
    2230:	de b7       	in	r29, 0x3e	; 62
    2232:	89 83       	std	Y+1, r24	; 0x01
    2234:	7b 83       	std	Y+3, r23	; 0x03
    2236:	6a 83       	std	Y+2, r22	; 0x02
	Anzahl_Blinks_Glob = Anzahl_Blinks;
    2238:	89 81       	ldd	r24, Y+1	; 0x01
    223a:	80 93 47 02 	sts	0x0247, r24	; 0x800247 <Anzahl_Blinks_Glob>
	Zeit_fuer_Blinken_Glob = Zeit_fuer_Blinken;
    223e:	8a 81       	ldd	r24, Y+2	; 0x02
    2240:	9b 81       	ldd	r25, Y+3	; 0x03
    2242:	90 93 49 02 	sts	0x0249, r25	; 0x800249 <Zeit_fuer_Blinken_Glob+0x1>
    2246:	80 93 48 02 	sts	0x0248, r24	; 0x800248 <Zeit_fuer_Blinken_Glob>
	sys_time_blink = sys_time;
    224a:	80 91 34 02 	lds	r24, 0x0234	; 0x800234 <sys_time>
    224e:	90 91 35 02 	lds	r25, 0x0235	; 0x800235 <sys_time+0x1>
    2252:	a0 91 36 02 	lds	r26, 0x0236	; 0x800236 <sys_time+0x2>
    2256:	b0 91 37 02 	lds	r27, 0x0237	; 0x800237 <sys_time+0x3>
    225a:	80 93 4a 02 	sts	0x024A, r24	; 0x80024a <sys_time_blink>
    225e:	90 93 4b 02 	sts	0x024B, r25	; 0x80024b <sys_time_blink+0x1>
    2262:	a0 93 4c 02 	sts	0x024C, r26	; 0x80024c <sys_time_blink+0x2>
    2266:	b0 93 4d 02 	sts	0x024D, r27	; 0x80024d <sys_time_blink+0x3>
	LED_Blink_Flag = 0;
    226a:	10 92 45 02 	sts	0x0245, r1	; 0x800245 <LED_Blink_Flag>
	LED_Blink_on = 0;
    226e:	10 92 46 02 	sts	0x0246, r1	; 0x800246 <LED_Blink_on>
	}
    2272:	00 00       	nop
    2274:	0f 90       	pop	r0
    2276:	0f 90       	pop	r0
    2278:	0f 90       	pop	r0
    227a:	df 91       	pop	r29
    227c:	cf 91       	pop	r28
    227e:	08 95       	ret

00002280 <LED_Blink_CTRL>:

void LED_Blink_CTRL(){
    2280:	0f 93       	push	r16
    2282:	1f 93       	push	r17
    2284:	cf 93       	push	r28
    2286:	df 93       	push	r29
    2288:	cd b7       	in	r28, 0x3d	; 61
    228a:	de b7       	in	r29, 0x3e	; 62
	
	if (LED_Blink_Flag < Anzahl_Blinks_Glob)
    228c:	90 91 45 02 	lds	r25, 0x0245	; 0x800245 <LED_Blink_Flag>
    2290:	80 91 47 02 	lds	r24, 0x0247	; 0x800247 <Anzahl_Blinks_Glob>
    2294:	98 17       	cp	r25, r24
    2296:	08 f0       	brcs	.+2      	; 0x229a <LED_Blink_CTRL+0x1a>
    2298:	a2 c0       	rjmp	.+324    	; 0x23de <LED_Blink_CTRL+0x15e>
	{
		if (((sys_time_blink + (Zeit_fuer_Blinken_Glob/(Anzahl_Blinks_Glob*2)/2) + (LED_Blink_Flag * (Zeit_fuer_Blinken_Glob/(Anzahl_Blinks_Glob*2)))) <= sys_time) && (LED_Blink_on == 0))
    229a:	20 91 48 02 	lds	r18, 0x0248	; 0x800248 <Zeit_fuer_Blinken_Glob>
    229e:	30 91 49 02 	lds	r19, 0x0249	; 0x800249 <Zeit_fuer_Blinken_Glob+0x1>
    22a2:	80 91 47 02 	lds	r24, 0x0247	; 0x800247 <Anzahl_Blinks_Glob>
    22a6:	88 2f       	mov	r24, r24
    22a8:	90 e0       	ldi	r25, 0x00	; 0
    22aa:	88 0f       	add	r24, r24
    22ac:	99 1f       	adc	r25, r25
    22ae:	ac 01       	movw	r20, r24
    22b0:	c9 01       	movw	r24, r18
    22b2:	ba 01       	movw	r22, r20
    22b4:	5d d3       	rcall	.+1722   	; 0x2970 <__udivmodhi4>
    22b6:	cb 01       	movw	r24, r22
    22b8:	96 95       	lsr	r25
    22ba:	87 95       	ror	r24
    22bc:	9c 01       	movw	r18, r24
    22be:	40 e0       	ldi	r20, 0x00	; 0
    22c0:	50 e0       	ldi	r21, 0x00	; 0
    22c2:	80 91 4a 02 	lds	r24, 0x024A	; 0x80024a <sys_time_blink>
    22c6:	90 91 4b 02 	lds	r25, 0x024B	; 0x80024b <sys_time_blink+0x1>
    22ca:	a0 91 4c 02 	lds	r26, 0x024C	; 0x80024c <sys_time_blink+0x2>
    22ce:	b0 91 4d 02 	lds	r27, 0x024D	; 0x80024d <sys_time_blink+0x3>
    22d2:	89 01       	movw	r16, r18
    22d4:	9a 01       	movw	r18, r20
    22d6:	08 0f       	add	r16, r24
    22d8:	19 1f       	adc	r17, r25
    22da:	2a 1f       	adc	r18, r26
    22dc:	3b 1f       	adc	r19, r27
    22de:	80 91 45 02 	lds	r24, 0x0245	; 0x800245 <LED_Blink_Flag>
    22e2:	e8 2f       	mov	r30, r24
    22e4:	f0 e0       	ldi	r31, 0x00	; 0
    22e6:	40 91 48 02 	lds	r20, 0x0248	; 0x800248 <Zeit_fuer_Blinken_Glob>
    22ea:	50 91 49 02 	lds	r21, 0x0249	; 0x800249 <Zeit_fuer_Blinken_Glob+0x1>
    22ee:	80 91 47 02 	lds	r24, 0x0247	; 0x800247 <Anzahl_Blinks_Glob>
    22f2:	88 2f       	mov	r24, r24
    22f4:	90 e0       	ldi	r25, 0x00	; 0
    22f6:	88 0f       	add	r24, r24
    22f8:	99 1f       	adc	r25, r25
    22fa:	bc 01       	movw	r22, r24
    22fc:	ca 01       	movw	r24, r20
    22fe:	38 d3       	rcall	.+1648   	; 0x2970 <__udivmodhi4>
    2300:	cb 01       	movw	r24, r22
    2302:	ac 01       	movw	r20, r24
    2304:	e4 9f       	mul	r30, r20
    2306:	c0 01       	movw	r24, r0
    2308:	e5 9f       	mul	r30, r21
    230a:	90 0d       	add	r25, r0
    230c:	f4 9f       	mul	r31, r20
    230e:	90 0d       	add	r25, r0
    2310:	11 24       	eor	r1, r1
    2312:	cc 01       	movw	r24, r24
    2314:	a0 e0       	ldi	r26, 0x00	; 0
    2316:	b0 e0       	ldi	r27, 0x00	; 0
    2318:	a9 01       	movw	r20, r18
    231a:	98 01       	movw	r18, r16
    231c:	28 0f       	add	r18, r24
    231e:	39 1f       	adc	r19, r25
    2320:	4a 1f       	adc	r20, r26
    2322:	5b 1f       	adc	r21, r27
    2324:	80 91 34 02 	lds	r24, 0x0234	; 0x800234 <sys_time>
    2328:	90 91 35 02 	lds	r25, 0x0235	; 0x800235 <sys_time+0x1>
    232c:	a0 91 36 02 	lds	r26, 0x0236	; 0x800236 <sys_time+0x2>
    2330:	b0 91 37 02 	lds	r27, 0x0237	; 0x800237 <sys_time+0x3>
    2334:	82 17       	cp	r24, r18
    2336:	93 07       	cpc	r25, r19
    2338:	a4 07       	cpc	r26, r20
    233a:	b5 07       	cpc	r27, r21
    233c:	88 f0       	brcs	.+34     	; 0x2360 <LED_Blink_CTRL+0xe0>
    233e:	80 91 46 02 	lds	r24, 0x0246	; 0x800246 <LED_Blink_on>
    2342:	88 23       	and	r24, r24
    2344:	69 f4       	brne	.+26     	; 0x2360 <LED_Blink_CTRL+0xe0>
		{
			LED_Blink_on = 1;
    2346:	81 e0       	ldi	r24, 0x01	; 1
    2348:	80 93 46 02 	sts	0x0246, r24	; 0x800246 <LED_Blink_on>
			
			led_left_top_bar_select(LED_COUNT_TOP_LEFT);
    234c:	85 e0       	ldi	r24, 0x05	; 5
			led_right_top_bar_select(LED_COUNT_TOP_RIGHT);
    234e:	bf d9       	rcall	.-3202   	; 0x16ce <led_left_top_bar_select>
    2350:	8a e0       	ldi	r24, 0x0A	; 10
    2352:	f9 d9       	rcall	.-3086   	; 0x1746 <led_right_top_bar_select>
			
			LED_Blink_Flag++;
    2354:	80 91 45 02 	lds	r24, 0x0245	; 0x800245 <LED_Blink_Flag>
    2358:	8f 5f       	subi	r24, 0xFF	; 255
    235a:	80 93 45 02 	sts	0x0245, r24	; 0x800245 <LED_Blink_Flag>
	Anzahl_Blinks_Glob = 0;
	LED_Blink_on = 0;
	clear_top_left_bar();
	clear_top_right_bar();
	}
    235e:	47 c0       	rjmp	.+142    	; 0x23ee <LED_Blink_CTRL+0x16e>
			led_right_top_bar_select(LED_COUNT_TOP_RIGHT);
			
			LED_Blink_Flag++;
			
		}
		else if (((sys_time_blink  + (LED_Blink_Flag * (Zeit_fuer_Blinken_Glob/(Anzahl_Blinks_Glob*2)))) <= sys_time) && (LED_Blink_on == 1))
    2360:	80 91 45 02 	lds	r24, 0x0245	; 0x800245 <LED_Blink_Flag>
    2364:	28 2f       	mov	r18, r24
    2366:	30 e0       	ldi	r19, 0x00	; 0
    2368:	40 91 48 02 	lds	r20, 0x0248	; 0x800248 <Zeit_fuer_Blinken_Glob>
    236c:	50 91 49 02 	lds	r21, 0x0249	; 0x800249 <Zeit_fuer_Blinken_Glob+0x1>
    2370:	80 91 47 02 	lds	r24, 0x0247	; 0x800247 <Anzahl_Blinks_Glob>
    2374:	88 2f       	mov	r24, r24
    2376:	90 e0       	ldi	r25, 0x00	; 0
    2378:	88 0f       	add	r24, r24
    237a:	99 1f       	adc	r25, r25
    237c:	bc 01       	movw	r22, r24
    237e:	ca 01       	movw	r24, r20
    2380:	f7 d2       	rcall	.+1518   	; 0x2970 <__udivmodhi4>
    2382:	cb 01       	movw	r24, r22
    2384:	ac 01       	movw	r20, r24
    2386:	24 9f       	mul	r18, r20
    2388:	c0 01       	movw	r24, r0
    238a:	25 9f       	mul	r18, r21
    238c:	90 0d       	add	r25, r0
    238e:	34 9f       	mul	r19, r20
    2390:	90 0d       	add	r25, r0
    2392:	11 24       	eor	r1, r1
    2394:	9c 01       	movw	r18, r24
    2396:	40 e0       	ldi	r20, 0x00	; 0
    2398:	50 e0       	ldi	r21, 0x00	; 0
    239a:	80 91 4a 02 	lds	r24, 0x024A	; 0x80024a <sys_time_blink>
    239e:	90 91 4b 02 	lds	r25, 0x024B	; 0x80024b <sys_time_blink+0x1>
    23a2:	a0 91 4c 02 	lds	r26, 0x024C	; 0x80024c <sys_time_blink+0x2>
    23a6:	b0 91 4d 02 	lds	r27, 0x024D	; 0x80024d <sys_time_blink+0x3>
    23aa:	28 0f       	add	r18, r24
    23ac:	39 1f       	adc	r19, r25
    23ae:	4a 1f       	adc	r20, r26
    23b0:	5b 1f       	adc	r21, r27
    23b2:	80 91 34 02 	lds	r24, 0x0234	; 0x800234 <sys_time>
    23b6:	90 91 35 02 	lds	r25, 0x0235	; 0x800235 <sys_time+0x1>
    23ba:	a0 91 36 02 	lds	r26, 0x0236	; 0x800236 <sys_time+0x2>
    23be:	b0 91 37 02 	lds	r27, 0x0237	; 0x800237 <sys_time+0x3>
    23c2:	82 17       	cp	r24, r18
    23c4:	93 07       	cpc	r25, r19
    23c6:	a4 07       	cpc	r26, r20
    23c8:	b5 07       	cpc	r27, r21
    23ca:	88 f0       	brcs	.+34     	; 0x23ee <LED_Blink_CTRL+0x16e>
    23cc:	80 91 46 02 	lds	r24, 0x0246	; 0x800246 <LED_Blink_on>
		{
			LED_Blink_on = 0;
    23d0:	81 30       	cpi	r24, 0x01	; 1
    23d2:	69 f4       	brne	.+26     	; 0x23ee <LED_Blink_CTRL+0x16e>
			clear_top_left_bar();
    23d4:	10 92 46 02 	sts	0x0246, r1	; 0x800246 <LED_Blink_on>
			clear_top_right_bar();
    23d8:	4b d9       	rcall	.-3434   	; 0x1670 <clear_top_left_bar>
    23da:	64 d9       	rcall	.-3384   	; 0x16a4 <clear_top_right_bar>
		}
	}else{
	LED_Blink_Flag = 0;
    23dc:	08 c0       	rjmp	.+16     	; 0x23ee <LED_Blink_CTRL+0x16e>
	Anzahl_Blinks_Glob = 0;
    23de:	10 92 45 02 	sts	0x0245, r1	; 0x800245 <LED_Blink_Flag>
	LED_Blink_on = 0;
    23e2:	10 92 47 02 	sts	0x0247, r1	; 0x800247 <Anzahl_Blinks_Glob>
	clear_top_left_bar();
    23e6:	10 92 46 02 	sts	0x0246, r1	; 0x800246 <LED_Blink_on>
	clear_top_right_bar();
    23ea:	42 d9       	rcall	.-3452   	; 0x1670 <clear_top_left_bar>
    23ec:	5b d9       	rcall	.-3402   	; 0x16a4 <clear_top_right_bar>
	}
    23ee:	00 00       	nop
    23f0:	df 91       	pop	r29
    23f2:	cf 91       	pop	r28
    23f4:	1f 91       	pop	r17
    23f6:	0f 91       	pop	r16
    23f8:	08 95       	ret

000023fa <__vector_20>:
    23fa:	1f 92       	push	r1
    23fc:	0f 92       	push	r0
    23fe:	00 90 5f 00 	lds	r0, 0x005F	; 0x80005f <__TEXT_REGION_LENGTH__+0x7e005f>
    2402:	0f 92       	push	r0
    2404:	11 24       	eor	r1, r1
    2406:	00 90 5b 00 	lds	r0, 0x005B	; 0x80005b <__TEXT_REGION_LENGTH__+0x7e005b>
    240a:	0f 92       	push	r0
    240c:	2f 93       	push	r18
    240e:	3f 93       	push	r19
    2410:	8f 93       	push	r24
    2412:	9f 93       	push	r25
    2414:	ef 93       	push	r30
    2416:	ff 93       	push	r31
    2418:	cf 93       	push	r28
    241a:	df 93       	push	r29
    241c:	cd b7       	in	r28, 0x3d	; 61
    241e:	de b7       	in	r29, 0x3e	; 62
    2420:	80 91 4e 02 	lds	r24, 0x024E	; 0x80024e <spi_state>
    2424:	88 2f       	mov	r24, r24
    2426:	90 e0       	ldi	r25, 0x00	; 0
    2428:	82 30       	cpi	r24, 0x02	; 2
    242a:	91 05       	cpc	r25, r1
    242c:	81 f0       	breq	.+32     	; 0x244e <__vector_20+0x54>
    242e:	83 30       	cpi	r24, 0x03	; 3
    2430:	91 05       	cpc	r25, r1
    2432:	b9 f0       	breq	.+46     	; 0x2462 <__vector_20+0x68>
    2434:	01 97       	sbiw	r24, 0x01	; 1
    2436:	09 f0       	breq	.+2      	; 0x243a <__vector_20+0x40>
    2438:	29 c0       	rjmp	.+82     	; 0x248c <__vector_20+0x92>
    243a:	8e e4       	ldi	r24, 0x4E	; 78
    243c:	90 e0       	ldi	r25, 0x00	; 0
    243e:	20 91 56 04 	lds	r18, 0x0456	; 0x800456 <current_msg+0x2>
    2442:	fc 01       	movw	r30, r24
    2444:	20 83       	st	Z, r18
    2446:	82 e0       	ldi	r24, 0x02	; 2
    2448:	80 93 4e 02 	sts	0x024E, r24	; 0x80024e <spi_state>
    244c:	1f c0       	rjmp	.+62     	; 0x248c <__vector_20+0x92>
    244e:	8e e4       	ldi	r24, 0x4E	; 78
    2450:	90 e0       	ldi	r25, 0x00	; 0
    2452:	20 91 57 04 	lds	r18, 0x0457	; 0x800457 <current_msg+0x3>
    2456:	fc 01       	movw	r30, r24
    2458:	20 83       	st	Z, r18
    245a:	83 e0       	ldi	r24, 0x03	; 3
    245c:	80 93 4e 02 	sts	0x024E, r24	; 0x80024e <spi_state>
    2460:	15 c0       	rjmp	.+42     	; 0x248c <__vector_20+0x92>
    2462:	85 e2       	ldi	r24, 0x25	; 37
    2464:	90 e0       	ldi	r25, 0x00	; 0
    2466:	25 e2       	ldi	r18, 0x25	; 37
    2468:	30 e0       	ldi	r19, 0x00	; 0
    246a:	f9 01       	movw	r30, r18
    246c:	20 81       	ld	r18, Z
    246e:	20 68       	ori	r18, 0x80	; 128
    2470:	fc 01       	movw	r30, r24
    2472:	20 83       	st	Z, r18
    2474:	82 e2       	ldi	r24, 0x22	; 34
    2476:	90 e0       	ldi	r25, 0x00	; 0
    2478:	22 e2       	ldi	r18, 0x22	; 34
    247a:	30 e0       	ldi	r19, 0x00	; 0
    247c:	f9 01       	movw	r30, r18
    247e:	20 81       	ld	r18, Z
    2480:	28 60       	ori	r18, 0x08	; 8
    2482:	fc 01       	movw	r30, r24
    2484:	20 83       	st	Z, r18
    2486:	10 92 4e 02 	sts	0x024E, r1	; 0x80024e <spi_state>
    248a:	00 00       	nop
    248c:	00 00       	nop
    248e:	df 91       	pop	r29
    2490:	cf 91       	pop	r28
    2492:	ff 91       	pop	r31
    2494:	ef 91       	pop	r30
    2496:	9f 91       	pop	r25
    2498:	8f 91       	pop	r24
    249a:	3f 91       	pop	r19
    249c:	2f 91       	pop	r18
    249e:	0f 90       	pop	r0
    24a0:	00 92 5b 00 	sts	0x005B, r0	; 0x80005b <__TEXT_REGION_LENGTH__+0x7e005b>
    24a4:	0f 90       	pop	r0
    24a6:	00 92 5f 00 	sts	0x005F, r0	; 0x80005f <__TEXT_REGION_LENGTH__+0x7e005f>
    24aa:	0f 90       	pop	r0
    24ac:	1f 90       	pop	r1
    24ae:	18 95       	reti

000024b0 <port_config>:
    24b0:	cf 93       	push	r28
    24b2:	df 93       	push	r29
    24b4:	cd b7       	in	r28, 0x3d	; 61
    24b6:	de b7       	in	r29, 0x3e	; 62
    24b8:	81 e2       	ldi	r24, 0x21	; 33
    24ba:	90 e0       	ldi	r25, 0x00	; 0
    24bc:	21 e2       	ldi	r18, 0x21	; 33
    24be:	30 e0       	ldi	r19, 0x00	; 0
    24c0:	f9 01       	movw	r30, r18
    24c2:	20 81       	ld	r18, Z
    24c4:	2c 6f       	ori	r18, 0xFC	; 252
    24c6:	fc 01       	movw	r30, r24
    24c8:	20 83       	st	Z, r18
    24ca:	81 e2       	ldi	r24, 0x21	; 33
    24cc:	90 e0       	ldi	r25, 0x00	; 0
    24ce:	21 e2       	ldi	r18, 0x21	; 33
    24d0:	30 e0       	ldi	r19, 0x00	; 0
    24d2:	f9 01       	movw	r30, r18
    24d4:	20 81       	ld	r18, Z
    24d6:	2c 7f       	andi	r18, 0xFC	; 252
    24d8:	fc 01       	movw	r30, r24
    24da:	20 83       	st	Z, r18
    24dc:	84 e2       	ldi	r24, 0x24	; 36
    24de:	90 e0       	ldi	r25, 0x00	; 0
    24e0:	24 e2       	ldi	r18, 0x24	; 36
    24e2:	30 e0       	ldi	r19, 0x00	; 0
    24e4:	f9 01       	movw	r30, r18
    24e6:	20 81       	ld	r18, Z
    24e8:	26 6f       	ori	r18, 0xF6	; 246
    24ea:	fc 01       	movw	r30, r24
    24ec:	20 83       	st	Z, r18
    24ee:	84 e2       	ldi	r24, 0x24	; 36
    24f0:	90 e0       	ldi	r25, 0x00	; 0
    24f2:	24 e2       	ldi	r18, 0x24	; 36
    24f4:	30 e0       	ldi	r19, 0x00	; 0
    24f6:	f9 01       	movw	r30, r18
    24f8:	20 81       	ld	r18, Z
    24fa:	27 7f       	andi	r18, 0xF7	; 247
    24fc:	fc 01       	movw	r30, r24
    24fe:	20 83       	st	Z, r18
    2500:	87 e2       	ldi	r24, 0x27	; 39
    2502:	90 e0       	ldi	r25, 0x00	; 0
    2504:	2f ef       	ldi	r18, 0xFF	; 255
    2506:	fc 01       	movw	r30, r24
    2508:	20 83       	st	Z, r18
    250a:	8a e2       	ldi	r24, 0x2A	; 42
    250c:	90 e0       	ldi	r25, 0x00	; 0
    250e:	2a e2       	ldi	r18, 0x2A	; 42
    2510:	30 e0       	ldi	r19, 0x00	; 0
    2512:	f9 01       	movw	r30, r18
    2514:	20 81       	ld	r18, Z
    2516:	2f 69       	ori	r18, 0x9F	; 159
    2518:	fc 01       	movw	r30, r24
    251a:	20 83       	st	Z, r18
    251c:	8d e2       	ldi	r24, 0x2D	; 45
    251e:	90 e0       	ldi	r25, 0x00	; 0
    2520:	2f ef       	ldi	r18, 0xFF	; 255
    2522:	fc 01       	movw	r30, r24
    2524:	20 83       	st	Z, r18
    2526:	80 e3       	ldi	r24, 0x30	; 48
    2528:	90 e0       	ldi	r25, 0x00	; 0
    252a:	20 e3       	ldi	r18, 0x30	; 48
    252c:	30 e0       	ldi	r19, 0x00	; 0
    252e:	f9 01       	movw	r30, r18
    2530:	20 81       	ld	r18, Z
    2532:	21 7f       	andi	r18, 0xF1	; 241
    2534:	fc 01       	movw	r30, r24
    2536:	20 83       	st	Z, r18
    2538:	83 e3       	ldi	r24, 0x33	; 51
    253a:	90 e0       	ldi	r25, 0x00	; 0
    253c:	23 e3       	ldi	r18, 0x33	; 51
    253e:	30 e0       	ldi	r19, 0x00	; 0
    2540:	f9 01       	movw	r30, r18
    2542:	20 81       	ld	r18, Z
    2544:	2f 61       	ori	r18, 0x1F	; 31
    2546:	fc 01       	movw	r30, r24
    2548:	20 83       	st	Z, r18
    254a:	82 e2       	ldi	r24, 0x22	; 34
    254c:	90 e0       	ldi	r25, 0x00	; 0
    254e:	fc 01       	movw	r30, r24
    2550:	10 82       	st	Z, r1
    2552:	85 e2       	ldi	r24, 0x25	; 37
    2554:	90 e0       	ldi	r25, 0x00	; 0
    2556:	fc 01       	movw	r30, r24
    2558:	10 82       	st	Z, r1
    255a:	88 e2       	ldi	r24, 0x28	; 40
    255c:	90 e0       	ldi	r25, 0x00	; 0
    255e:	fc 01       	movw	r30, r24
    2560:	10 82       	st	Z, r1
    2562:	8b e2       	ldi	r24, 0x2B	; 43
    2564:	90 e0       	ldi	r25, 0x00	; 0
    2566:	fc 01       	movw	r30, r24
    2568:	10 82       	st	Z, r1
    256a:	8e e2       	ldi	r24, 0x2E	; 46
    256c:	90 e0       	ldi	r25, 0x00	; 0
    256e:	fc 01       	movw	r30, r24
    2570:	10 82       	st	Z, r1
    2572:	81 e3       	ldi	r24, 0x31	; 49
    2574:	90 e0       	ldi	r25, 0x00	; 0
    2576:	fc 01       	movw	r30, r24
    2578:	10 82       	st	Z, r1
    257a:	84 e3       	ldi	r24, 0x34	; 52
    257c:	90 e0       	ldi	r25, 0x00	; 0
    257e:	fc 01       	movw	r30, r24
    2580:	10 82       	st	Z, r1
    2582:	82 e2       	ldi	r24, 0x22	; 34
    2584:	90 e0       	ldi	r25, 0x00	; 0
    2586:	22 e2       	ldi	r18, 0x22	; 34
    2588:	30 e0       	ldi	r19, 0x00	; 0
    258a:	f9 01       	movw	r30, r18
    258c:	20 81       	ld	r18, Z
    258e:	23 60       	ori	r18, 0x03	; 3
    2590:	fc 01       	movw	r30, r24
    2592:	20 83       	st	Z, r18
    2594:	00 00       	nop
    2596:	df 91       	pop	r29
    2598:	cf 91       	pop	r28
    259a:	08 95       	ret

0000259c <sys_timer_config>:
    259c:	cf 93       	push	r28
    259e:	df 93       	push	r29
    25a0:	cd b7       	in	r28, 0x3d	; 61
    25a2:	de b7       	in	r29, 0x3e	; 62
    25a4:	84 e4       	ldi	r24, 0x44	; 68
    25a6:	90 e0       	ldi	r25, 0x00	; 0
    25a8:	2b e0       	ldi	r18, 0x0B	; 11
    25aa:	fc 01       	movw	r30, r24
    25ac:	20 83       	st	Z, r18
    25ae:	8e e6       	ldi	r24, 0x6E	; 110
    25b0:	90 e0       	ldi	r25, 0x00	; 0
    25b2:	22 e0       	ldi	r18, 0x02	; 2
    25b4:	fc 01       	movw	r30, r24
    25b6:	20 83       	st	Z, r18
    25b8:	87 e4       	ldi	r24, 0x47	; 71
    25ba:	90 e0       	ldi	r25, 0x00	; 0
    25bc:	29 ef       	ldi	r18, 0xF9	; 249
    25be:	fc 01       	movw	r30, r24
    25c0:	20 83       	st	Z, r18
    25c2:	00 00       	nop
    25c4:	df 91       	pop	r29
    25c6:	cf 91       	pop	r28
    25c8:	08 95       	ret

000025ca <__vector_16>:
    25ca:	1f 92       	push	r1
    25cc:	0f 92       	push	r0
    25ce:	00 90 5f 00 	lds	r0, 0x005F	; 0x80005f <__TEXT_REGION_LENGTH__+0x7e005f>
    25d2:	0f 92       	push	r0
    25d4:	11 24       	eor	r1, r1
    25d6:	00 90 5b 00 	lds	r0, 0x005B	; 0x80005b <__TEXT_REGION_LENGTH__+0x7e005b>
    25da:	0f 92       	push	r0
    25dc:	2f 93       	push	r18
    25de:	3f 93       	push	r19
    25e0:	8f 93       	push	r24
    25e2:	9f 93       	push	r25
    25e4:	af 93       	push	r26
    25e6:	bf 93       	push	r27
    25e8:	ef 93       	push	r30
    25ea:	ff 93       	push	r31
    25ec:	cf 93       	push	r28
    25ee:	df 93       	push	r29
    25f0:	cd b7       	in	r28, 0x3d	; 61
    25f2:	de b7       	in	r29, 0x3e	; 62
    25f4:	81 e0       	ldi	r24, 0x01	; 1
    25f6:	80 93 50 02 	sts	0x0250, r24	; 0x800250 <draw_data>
    25fa:	80 91 4f 02 	lds	r24, 0x024F	; 0x80024f <update_data>
    25fe:	8f 5f       	subi	r24, 0xFF	; 255
    2600:	80 93 4f 02 	sts	0x024F, r24	; 0x80024f <update_data>
    2604:	80 91 34 02 	lds	r24, 0x0234	; 0x800234 <sys_time>
    2608:	90 91 35 02 	lds	r25, 0x0235	; 0x800235 <sys_time+0x1>
    260c:	a0 91 36 02 	lds	r26, 0x0236	; 0x800236 <sys_time+0x2>
    2610:	b0 91 37 02 	lds	r27, 0x0237	; 0x800237 <sys_time+0x3>
    2614:	01 96       	adiw	r24, 0x01	; 1
    2616:	a1 1d       	adc	r26, r1
    2618:	b1 1d       	adc	r27, r1
    261a:	80 93 34 02 	sts	0x0234, r24	; 0x800234 <sys_time>
    261e:	90 93 35 02 	sts	0x0235, r25	; 0x800235 <sys_time+0x1>
    2622:	a0 93 36 02 	sts	0x0236, r26	; 0x800236 <sys_time+0x2>
    2626:	b0 93 37 02 	sts	0x0237, r27	; 0x800237 <sys_time+0x3>
    262a:	84 e3       	ldi	r24, 0x34	; 52
    262c:	90 e0       	ldi	r25, 0x00	; 0
    262e:	24 e3       	ldi	r18, 0x34	; 52
    2630:	30 e0       	ldi	r19, 0x00	; 0
    2632:	f9 01       	movw	r30, r18
    2634:	30 81       	ld	r19, Z
    2636:	28 e0       	ldi	r18, 0x08	; 8
    2638:	23 27       	eor	r18, r19
    263a:	fc 01       	movw	r30, r24
    263c:	20 83       	st	Z, r18
    263e:	00 00       	nop
    2640:	df 91       	pop	r29
    2642:	cf 91       	pop	r28
    2644:	ff 91       	pop	r31
    2646:	ef 91       	pop	r30
    2648:	bf 91       	pop	r27
    264a:	af 91       	pop	r26
    264c:	9f 91       	pop	r25
    264e:	8f 91       	pop	r24
    2650:	3f 91       	pop	r19
    2652:	2f 91       	pop	r18
    2654:	0f 90       	pop	r0
    2656:	00 92 5b 00 	sts	0x005B, r0	; 0x80005b <__TEXT_REGION_LENGTH__+0x7e005b>
    265a:	0f 90       	pop	r0
    265c:	00 92 5f 00 	sts	0x005F, r0	; 0x80005f <__TEXT_REGION_LENGTH__+0x7e005f>
    2660:	0f 90       	pop	r0
    2662:	1f 90       	pop	r1
    2664:	18 95       	reti

00002666 <__divsf3>:
    2666:	0c d0       	rcall	.+24     	; 0x2680 <__divsf3x>
    2668:	e6 c0       	rjmp	.+460    	; 0x2836 <__fp_round>
    266a:	de d0       	rcall	.+444    	; 0x2828 <__fp_pscB>
    266c:	40 f0       	brcs	.+16     	; 0x267e <__divsf3+0x18>
    266e:	d5 d0       	rcall	.+426    	; 0x281a <__fp_pscA>
    2670:	30 f0       	brcs	.+12     	; 0x267e <__divsf3+0x18>
    2672:	21 f4       	brne	.+8      	; 0x267c <__divsf3+0x16>
    2674:	5f 3f       	cpi	r21, 0xFF	; 255
    2676:	19 f0       	breq	.+6      	; 0x267e <__divsf3+0x18>
    2678:	c7 c0       	rjmp	.+398    	; 0x2808 <__fp_inf>
    267a:	51 11       	cpse	r21, r1
    267c:	10 c1       	rjmp	.+544    	; 0x289e <__fp_szero>
    267e:	ca c0       	rjmp	.+404    	; 0x2814 <__fp_nan>

00002680 <__divsf3x>:
    2680:	eb d0       	rcall	.+470    	; 0x2858 <__fp_split3>
    2682:	98 f3       	brcs	.-26     	; 0x266a <__divsf3+0x4>

00002684 <__divsf3_pse>:
    2684:	99 23       	and	r25, r25
    2686:	c9 f3       	breq	.-14     	; 0x267a <__divsf3+0x14>
    2688:	55 23       	and	r21, r21
    268a:	b1 f3       	breq	.-20     	; 0x2678 <__divsf3+0x12>
    268c:	95 1b       	sub	r25, r21
    268e:	55 0b       	sbc	r21, r21
    2690:	bb 27       	eor	r27, r27
    2692:	aa 27       	eor	r26, r26
    2694:	62 17       	cp	r22, r18
    2696:	73 07       	cpc	r23, r19
    2698:	84 07       	cpc	r24, r20
    269a:	38 f0       	brcs	.+14     	; 0x26aa <__divsf3_pse+0x26>
    269c:	9f 5f       	subi	r25, 0xFF	; 255
    269e:	5f 4f       	sbci	r21, 0xFF	; 255
    26a0:	22 0f       	add	r18, r18
    26a2:	33 1f       	adc	r19, r19
    26a4:	44 1f       	adc	r20, r20
    26a6:	aa 1f       	adc	r26, r26
    26a8:	a9 f3       	breq	.-22     	; 0x2694 <__divsf3_pse+0x10>
    26aa:	33 d0       	rcall	.+102    	; 0x2712 <__divsf3_pse+0x8e>
    26ac:	0e 2e       	mov	r0, r30
    26ae:	3a f0       	brmi	.+14     	; 0x26be <__divsf3_pse+0x3a>
    26b0:	e0 e8       	ldi	r30, 0x80	; 128
    26b2:	30 d0       	rcall	.+96     	; 0x2714 <__divsf3_pse+0x90>
    26b4:	91 50       	subi	r25, 0x01	; 1
    26b6:	50 40       	sbci	r21, 0x00	; 0
    26b8:	e6 95       	lsr	r30
    26ba:	00 1c       	adc	r0, r0
    26bc:	ca f7       	brpl	.-14     	; 0x26b0 <__divsf3_pse+0x2c>
    26be:	29 d0       	rcall	.+82     	; 0x2712 <__divsf3_pse+0x8e>
    26c0:	fe 2f       	mov	r31, r30
    26c2:	27 d0       	rcall	.+78     	; 0x2712 <__divsf3_pse+0x8e>
    26c4:	66 0f       	add	r22, r22
    26c6:	77 1f       	adc	r23, r23
    26c8:	88 1f       	adc	r24, r24
    26ca:	bb 1f       	adc	r27, r27
    26cc:	26 17       	cp	r18, r22
    26ce:	37 07       	cpc	r19, r23
    26d0:	48 07       	cpc	r20, r24
    26d2:	ab 07       	cpc	r26, r27
    26d4:	b0 e8       	ldi	r27, 0x80	; 128
    26d6:	09 f0       	breq	.+2      	; 0x26da <__divsf3_pse+0x56>
    26d8:	bb 0b       	sbc	r27, r27
    26da:	80 2d       	mov	r24, r0
    26dc:	bf 01       	movw	r22, r30
    26de:	ff 27       	eor	r31, r31
    26e0:	93 58       	subi	r25, 0x83	; 131
    26e2:	5f 4f       	sbci	r21, 0xFF	; 255
    26e4:	2a f0       	brmi	.+10     	; 0x26f0 <__divsf3_pse+0x6c>
    26e6:	9e 3f       	cpi	r25, 0xFE	; 254
    26e8:	51 05       	cpc	r21, r1
    26ea:	68 f0       	brcs	.+26     	; 0x2706 <__divsf3_pse+0x82>
    26ec:	8d c0       	rjmp	.+282    	; 0x2808 <__fp_inf>
    26ee:	d7 c0       	rjmp	.+430    	; 0x289e <__fp_szero>
    26f0:	5f 3f       	cpi	r21, 0xFF	; 255
    26f2:	ec f3       	brlt	.-6      	; 0x26ee <__divsf3_pse+0x6a>
    26f4:	98 3e       	cpi	r25, 0xE8	; 232
    26f6:	dc f3       	brlt	.-10     	; 0x26ee <__divsf3_pse+0x6a>
    26f8:	86 95       	lsr	r24
    26fa:	77 95       	ror	r23
    26fc:	67 95       	ror	r22
    26fe:	b7 95       	ror	r27
    2700:	f7 95       	ror	r31
    2702:	9f 5f       	subi	r25, 0xFF	; 255
    2704:	c9 f7       	brne	.-14     	; 0x26f8 <__divsf3_pse+0x74>
    2706:	88 0f       	add	r24, r24
    2708:	91 1d       	adc	r25, r1
    270a:	96 95       	lsr	r25
    270c:	87 95       	ror	r24
    270e:	97 f9       	bld	r25, 7
    2710:	08 95       	ret
    2712:	e1 e0       	ldi	r30, 0x01	; 1
    2714:	66 0f       	add	r22, r22
    2716:	77 1f       	adc	r23, r23
    2718:	88 1f       	adc	r24, r24
    271a:	bb 1f       	adc	r27, r27
    271c:	62 17       	cp	r22, r18
    271e:	73 07       	cpc	r23, r19
    2720:	84 07       	cpc	r24, r20
    2722:	ba 07       	cpc	r27, r26
    2724:	20 f0       	brcs	.+8      	; 0x272e <__divsf3_pse+0xaa>
    2726:	62 1b       	sub	r22, r18
    2728:	73 0b       	sbc	r23, r19
    272a:	84 0b       	sbc	r24, r20
    272c:	ba 0b       	sbc	r27, r26
    272e:	ee 1f       	adc	r30, r30
    2730:	88 f7       	brcc	.-30     	; 0x2714 <__divsf3_pse+0x90>
    2732:	e0 95       	com	r30
    2734:	08 95       	ret

00002736 <__fixunssfsi>:
    2736:	98 d0       	rcall	.+304    	; 0x2868 <__fp_splitA>
    2738:	88 f0       	brcs	.+34     	; 0x275c <__fixunssfsi+0x26>
    273a:	9f 57       	subi	r25, 0x7F	; 127
    273c:	90 f0       	brcs	.+36     	; 0x2762 <__fixunssfsi+0x2c>
    273e:	b9 2f       	mov	r27, r25
    2740:	99 27       	eor	r25, r25
    2742:	b7 51       	subi	r27, 0x17	; 23
    2744:	a0 f0       	brcs	.+40     	; 0x276e <__fixunssfsi+0x38>
    2746:	d1 f0       	breq	.+52     	; 0x277c <__fixunssfsi+0x46>
    2748:	66 0f       	add	r22, r22
    274a:	77 1f       	adc	r23, r23
    274c:	88 1f       	adc	r24, r24
    274e:	99 1f       	adc	r25, r25
    2750:	1a f0       	brmi	.+6      	; 0x2758 <__fixunssfsi+0x22>
    2752:	ba 95       	dec	r27
    2754:	c9 f7       	brne	.-14     	; 0x2748 <__fixunssfsi+0x12>
    2756:	12 c0       	rjmp	.+36     	; 0x277c <__fixunssfsi+0x46>
    2758:	b1 30       	cpi	r27, 0x01	; 1
    275a:	81 f0       	breq	.+32     	; 0x277c <__fixunssfsi+0x46>
    275c:	9f d0       	rcall	.+318    	; 0x289c <__fp_zero>
    275e:	b1 e0       	ldi	r27, 0x01	; 1
    2760:	08 95       	ret
    2762:	9c c0       	rjmp	.+312    	; 0x289c <__fp_zero>
    2764:	67 2f       	mov	r22, r23
    2766:	78 2f       	mov	r23, r24
    2768:	88 27       	eor	r24, r24
    276a:	b8 5f       	subi	r27, 0xF8	; 248
    276c:	39 f0       	breq	.+14     	; 0x277c <__fixunssfsi+0x46>
    276e:	b9 3f       	cpi	r27, 0xF9	; 249
    2770:	cc f3       	brlt	.-14     	; 0x2764 <__fixunssfsi+0x2e>
    2772:	86 95       	lsr	r24
    2774:	77 95       	ror	r23
    2776:	67 95       	ror	r22
    2778:	b3 95       	inc	r27
    277a:	d9 f7       	brne	.-10     	; 0x2772 <__fixunssfsi+0x3c>
    277c:	3e f4       	brtc	.+14     	; 0x278c <__fixunssfsi+0x56>
    277e:	90 95       	com	r25
    2780:	80 95       	com	r24
    2782:	70 95       	com	r23
    2784:	61 95       	neg	r22
    2786:	7f 4f       	sbci	r23, 0xFF	; 255
    2788:	8f 4f       	sbci	r24, 0xFF	; 255
    278a:	9f 4f       	sbci	r25, 0xFF	; 255
    278c:	08 95       	ret

0000278e <__floatunsisf>:
    278e:	e8 94       	clt
    2790:	09 c0       	rjmp	.+18     	; 0x27a4 <__floatsisf+0x12>

00002792 <__floatsisf>:
    2792:	97 fb       	bst	r25, 7
    2794:	3e f4       	brtc	.+14     	; 0x27a4 <__floatsisf+0x12>
    2796:	90 95       	com	r25
    2798:	80 95       	com	r24
    279a:	70 95       	com	r23
    279c:	61 95       	neg	r22
    279e:	7f 4f       	sbci	r23, 0xFF	; 255
    27a0:	8f 4f       	sbci	r24, 0xFF	; 255
    27a2:	9f 4f       	sbci	r25, 0xFF	; 255
    27a4:	99 23       	and	r25, r25
    27a6:	a9 f0       	breq	.+42     	; 0x27d2 <__floatsisf+0x40>
    27a8:	f9 2f       	mov	r31, r25
    27aa:	96 e9       	ldi	r25, 0x96	; 150
    27ac:	bb 27       	eor	r27, r27
    27ae:	93 95       	inc	r25
    27b0:	f6 95       	lsr	r31
    27b2:	87 95       	ror	r24
    27b4:	77 95       	ror	r23
    27b6:	67 95       	ror	r22
    27b8:	b7 95       	ror	r27
    27ba:	f1 11       	cpse	r31, r1
    27bc:	f8 cf       	rjmp	.-16     	; 0x27ae <__floatsisf+0x1c>
    27be:	fa f4       	brpl	.+62     	; 0x27fe <__floatsisf+0x6c>
    27c0:	bb 0f       	add	r27, r27
    27c2:	11 f4       	brne	.+4      	; 0x27c8 <__floatsisf+0x36>
    27c4:	60 ff       	sbrs	r22, 0
    27c6:	1b c0       	rjmp	.+54     	; 0x27fe <__floatsisf+0x6c>
    27c8:	6f 5f       	subi	r22, 0xFF	; 255
    27ca:	7f 4f       	sbci	r23, 0xFF	; 255
    27cc:	8f 4f       	sbci	r24, 0xFF	; 255
    27ce:	9f 4f       	sbci	r25, 0xFF	; 255
    27d0:	16 c0       	rjmp	.+44     	; 0x27fe <__floatsisf+0x6c>
    27d2:	88 23       	and	r24, r24
    27d4:	11 f0       	breq	.+4      	; 0x27da <__floatsisf+0x48>
    27d6:	96 e9       	ldi	r25, 0x96	; 150
    27d8:	11 c0       	rjmp	.+34     	; 0x27fc <__floatsisf+0x6a>
    27da:	77 23       	and	r23, r23
    27dc:	21 f0       	breq	.+8      	; 0x27e6 <__floatsisf+0x54>
    27de:	9e e8       	ldi	r25, 0x8E	; 142
    27e0:	87 2f       	mov	r24, r23
    27e2:	76 2f       	mov	r23, r22
    27e4:	05 c0       	rjmp	.+10     	; 0x27f0 <__floatsisf+0x5e>
    27e6:	66 23       	and	r22, r22
    27e8:	71 f0       	breq	.+28     	; 0x2806 <__floatsisf+0x74>
    27ea:	96 e8       	ldi	r25, 0x86	; 134
    27ec:	86 2f       	mov	r24, r22
    27ee:	70 e0       	ldi	r23, 0x00	; 0
    27f0:	60 e0       	ldi	r22, 0x00	; 0
    27f2:	2a f0       	brmi	.+10     	; 0x27fe <__floatsisf+0x6c>
    27f4:	9a 95       	dec	r25
    27f6:	66 0f       	add	r22, r22
    27f8:	77 1f       	adc	r23, r23
    27fa:	88 1f       	adc	r24, r24
    27fc:	da f7       	brpl	.-10     	; 0x27f4 <__floatsisf+0x62>
    27fe:	88 0f       	add	r24, r24
    2800:	96 95       	lsr	r25
    2802:	87 95       	ror	r24
    2804:	97 f9       	bld	r25, 7
    2806:	08 95       	ret

00002808 <__fp_inf>:
    2808:	97 f9       	bld	r25, 7
    280a:	9f 67       	ori	r25, 0x7F	; 127
    280c:	80 e8       	ldi	r24, 0x80	; 128
    280e:	70 e0       	ldi	r23, 0x00	; 0
    2810:	60 e0       	ldi	r22, 0x00	; 0
    2812:	08 95       	ret

00002814 <__fp_nan>:
    2814:	9f ef       	ldi	r25, 0xFF	; 255
    2816:	80 ec       	ldi	r24, 0xC0	; 192
    2818:	08 95       	ret

0000281a <__fp_pscA>:
    281a:	00 24       	eor	r0, r0
    281c:	0a 94       	dec	r0
    281e:	16 16       	cp	r1, r22
    2820:	17 06       	cpc	r1, r23
    2822:	18 06       	cpc	r1, r24
    2824:	09 06       	cpc	r0, r25
    2826:	08 95       	ret

00002828 <__fp_pscB>:
    2828:	00 24       	eor	r0, r0
    282a:	0a 94       	dec	r0
    282c:	12 16       	cp	r1, r18
    282e:	13 06       	cpc	r1, r19
    2830:	14 06       	cpc	r1, r20
    2832:	05 06       	cpc	r0, r21
    2834:	08 95       	ret

00002836 <__fp_round>:
    2836:	09 2e       	mov	r0, r25
    2838:	03 94       	inc	r0
    283a:	00 0c       	add	r0, r0
    283c:	11 f4       	brne	.+4      	; 0x2842 <__fp_round+0xc>
    283e:	88 23       	and	r24, r24
    2840:	52 f0       	brmi	.+20     	; 0x2856 <__fp_round+0x20>
    2842:	bb 0f       	add	r27, r27
    2844:	40 f4       	brcc	.+16     	; 0x2856 <__fp_round+0x20>
    2846:	bf 2b       	or	r27, r31
    2848:	11 f4       	brne	.+4      	; 0x284e <__fp_round+0x18>
    284a:	60 ff       	sbrs	r22, 0
    284c:	04 c0       	rjmp	.+8      	; 0x2856 <__fp_round+0x20>
    284e:	6f 5f       	subi	r22, 0xFF	; 255
    2850:	7f 4f       	sbci	r23, 0xFF	; 255
    2852:	8f 4f       	sbci	r24, 0xFF	; 255
    2854:	9f 4f       	sbci	r25, 0xFF	; 255
    2856:	08 95       	ret

00002858 <__fp_split3>:
    2858:	57 fd       	sbrc	r21, 7
    285a:	90 58       	subi	r25, 0x80	; 128
    285c:	44 0f       	add	r20, r20
    285e:	55 1f       	adc	r21, r21
    2860:	59 f0       	breq	.+22     	; 0x2878 <__fp_splitA+0x10>
    2862:	5f 3f       	cpi	r21, 0xFF	; 255
    2864:	71 f0       	breq	.+28     	; 0x2882 <__fp_splitA+0x1a>
    2866:	47 95       	ror	r20

00002868 <__fp_splitA>:
    2868:	88 0f       	add	r24, r24
    286a:	97 fb       	bst	r25, 7
    286c:	99 1f       	adc	r25, r25
    286e:	61 f0       	breq	.+24     	; 0x2888 <__fp_splitA+0x20>
    2870:	9f 3f       	cpi	r25, 0xFF	; 255
    2872:	79 f0       	breq	.+30     	; 0x2892 <__fp_splitA+0x2a>
    2874:	87 95       	ror	r24
    2876:	08 95       	ret
    2878:	12 16       	cp	r1, r18
    287a:	13 06       	cpc	r1, r19
    287c:	14 06       	cpc	r1, r20
    287e:	55 1f       	adc	r21, r21
    2880:	f2 cf       	rjmp	.-28     	; 0x2866 <__fp_split3+0xe>
    2882:	46 95       	lsr	r20
    2884:	f1 df       	rcall	.-30     	; 0x2868 <__fp_splitA>
    2886:	08 c0       	rjmp	.+16     	; 0x2898 <__fp_splitA+0x30>
    2888:	16 16       	cp	r1, r22
    288a:	17 06       	cpc	r1, r23
    288c:	18 06       	cpc	r1, r24
    288e:	99 1f       	adc	r25, r25
    2890:	f1 cf       	rjmp	.-30     	; 0x2874 <__fp_splitA+0xc>
    2892:	86 95       	lsr	r24
    2894:	71 05       	cpc	r23, r1
    2896:	61 05       	cpc	r22, r1
    2898:	08 94       	sec
    289a:	08 95       	ret

0000289c <__fp_zero>:
    289c:	e8 94       	clt

0000289e <__fp_szero>:
    289e:	bb 27       	eor	r27, r27
    28a0:	66 27       	eor	r22, r22
    28a2:	77 27       	eor	r23, r23
    28a4:	cb 01       	movw	r24, r22
    28a6:	97 f9       	bld	r25, 7
    28a8:	08 95       	ret

000028aa <__mulsf3>:
    28aa:	0b d0       	rcall	.+22     	; 0x28c2 <__mulsf3x>
    28ac:	c4 cf       	rjmp	.-120    	; 0x2836 <__fp_round>
    28ae:	b5 df       	rcall	.-150    	; 0x281a <__fp_pscA>
    28b0:	28 f0       	brcs	.+10     	; 0x28bc <__mulsf3+0x12>
    28b2:	ba df       	rcall	.-140    	; 0x2828 <__fp_pscB>
    28b4:	18 f0       	brcs	.+6      	; 0x28bc <__mulsf3+0x12>
    28b6:	95 23       	and	r25, r21
    28b8:	09 f0       	breq	.+2      	; 0x28bc <__mulsf3+0x12>
    28ba:	a6 cf       	rjmp	.-180    	; 0x2808 <__fp_inf>
    28bc:	ab cf       	rjmp	.-170    	; 0x2814 <__fp_nan>
    28be:	11 24       	eor	r1, r1
    28c0:	ee cf       	rjmp	.-36     	; 0x289e <__fp_szero>

000028c2 <__mulsf3x>:
    28c2:	ca df       	rcall	.-108    	; 0x2858 <__fp_split3>
    28c4:	a0 f3       	brcs	.-24     	; 0x28ae <__mulsf3+0x4>

000028c6 <__mulsf3_pse>:
    28c6:	95 9f       	mul	r25, r21
    28c8:	d1 f3       	breq	.-12     	; 0x28be <__mulsf3+0x14>
    28ca:	95 0f       	add	r25, r21
    28cc:	50 e0       	ldi	r21, 0x00	; 0
    28ce:	55 1f       	adc	r21, r21
    28d0:	62 9f       	mul	r22, r18
    28d2:	f0 01       	movw	r30, r0
    28d4:	72 9f       	mul	r23, r18
    28d6:	bb 27       	eor	r27, r27
    28d8:	f0 0d       	add	r31, r0
    28da:	b1 1d       	adc	r27, r1
    28dc:	63 9f       	mul	r22, r19
    28de:	aa 27       	eor	r26, r26
    28e0:	f0 0d       	add	r31, r0
    28e2:	b1 1d       	adc	r27, r1
    28e4:	aa 1f       	adc	r26, r26
    28e6:	64 9f       	mul	r22, r20
    28e8:	66 27       	eor	r22, r22
    28ea:	b0 0d       	add	r27, r0
    28ec:	a1 1d       	adc	r26, r1
    28ee:	66 1f       	adc	r22, r22
    28f0:	82 9f       	mul	r24, r18
    28f2:	22 27       	eor	r18, r18
    28f4:	b0 0d       	add	r27, r0
    28f6:	a1 1d       	adc	r26, r1
    28f8:	62 1f       	adc	r22, r18
    28fa:	73 9f       	mul	r23, r19
    28fc:	b0 0d       	add	r27, r0
    28fe:	a1 1d       	adc	r26, r1
    2900:	62 1f       	adc	r22, r18
    2902:	83 9f       	mul	r24, r19
    2904:	a0 0d       	add	r26, r0
    2906:	61 1d       	adc	r22, r1
    2908:	22 1f       	adc	r18, r18
    290a:	74 9f       	mul	r23, r20
    290c:	33 27       	eor	r19, r19
    290e:	a0 0d       	add	r26, r0
    2910:	61 1d       	adc	r22, r1
    2912:	23 1f       	adc	r18, r19
    2914:	84 9f       	mul	r24, r20
    2916:	60 0d       	add	r22, r0
    2918:	21 1d       	adc	r18, r1
    291a:	82 2f       	mov	r24, r18
    291c:	76 2f       	mov	r23, r22
    291e:	6a 2f       	mov	r22, r26
    2920:	11 24       	eor	r1, r1
    2922:	9f 57       	subi	r25, 0x7F	; 127
    2924:	50 40       	sbci	r21, 0x00	; 0
    2926:	8a f0       	brmi	.+34     	; 0x294a <__mulsf3_pse+0x84>
    2928:	e1 f0       	breq	.+56     	; 0x2962 <__mulsf3_pse+0x9c>
    292a:	88 23       	and	r24, r24
    292c:	4a f0       	brmi	.+18     	; 0x2940 <__mulsf3_pse+0x7a>
    292e:	ee 0f       	add	r30, r30
    2930:	ff 1f       	adc	r31, r31
    2932:	bb 1f       	adc	r27, r27
    2934:	66 1f       	adc	r22, r22
    2936:	77 1f       	adc	r23, r23
    2938:	88 1f       	adc	r24, r24
    293a:	91 50       	subi	r25, 0x01	; 1
    293c:	50 40       	sbci	r21, 0x00	; 0
    293e:	a9 f7       	brne	.-22     	; 0x292a <__mulsf3_pse+0x64>
    2940:	9e 3f       	cpi	r25, 0xFE	; 254
    2942:	51 05       	cpc	r21, r1
    2944:	70 f0       	brcs	.+28     	; 0x2962 <__mulsf3_pse+0x9c>
    2946:	60 cf       	rjmp	.-320    	; 0x2808 <__fp_inf>
    2948:	aa cf       	rjmp	.-172    	; 0x289e <__fp_szero>
    294a:	5f 3f       	cpi	r21, 0xFF	; 255
    294c:	ec f3       	brlt	.-6      	; 0x2948 <__mulsf3_pse+0x82>
    294e:	98 3e       	cpi	r25, 0xE8	; 232
    2950:	dc f3       	brlt	.-10     	; 0x2948 <__mulsf3_pse+0x82>
    2952:	86 95       	lsr	r24
    2954:	77 95       	ror	r23
    2956:	67 95       	ror	r22
    2958:	b7 95       	ror	r27
    295a:	f7 95       	ror	r31
    295c:	e7 95       	ror	r30
    295e:	9f 5f       	subi	r25, 0xFF	; 255
    2960:	c1 f7       	brne	.-16     	; 0x2952 <__mulsf3_pse+0x8c>
    2962:	fe 2b       	or	r31, r30
    2964:	88 0f       	add	r24, r24
    2966:	91 1d       	adc	r25, r1
    2968:	96 95       	lsr	r25
    296a:	87 95       	ror	r24
    296c:	97 f9       	bld	r25, 7
    296e:	08 95       	ret

00002970 <__udivmodhi4>:
    2970:	aa 1b       	sub	r26, r26
    2972:	bb 1b       	sub	r27, r27
    2974:	51 e1       	ldi	r21, 0x11	; 17
    2976:	07 c0       	rjmp	.+14     	; 0x2986 <__udivmodhi4_ep>

00002978 <__udivmodhi4_loop>:
    2978:	aa 1f       	adc	r26, r26
    297a:	bb 1f       	adc	r27, r27
    297c:	a6 17       	cp	r26, r22
    297e:	b7 07       	cpc	r27, r23
    2980:	10 f0       	brcs	.+4      	; 0x2986 <__udivmodhi4_ep>
    2982:	a6 1b       	sub	r26, r22
    2984:	b7 0b       	sbc	r27, r23

00002986 <__udivmodhi4_ep>:
    2986:	88 1f       	adc	r24, r24
    2988:	99 1f       	adc	r25, r25
    298a:	5a 95       	dec	r21
    298c:	a9 f7       	brne	.-22     	; 0x2978 <__udivmodhi4_loop>
    298e:	80 95       	com	r24
    2990:	90 95       	com	r25
    2992:	bc 01       	movw	r22, r24
    2994:	cd 01       	movw	r24, r26
    2996:	08 95       	ret

00002998 <__divmodhi4>:
    2998:	97 fb       	bst	r25, 7
    299a:	07 2e       	mov	r0, r23
    299c:	16 f4       	brtc	.+4      	; 0x29a2 <__divmodhi4+0xa>
    299e:	00 94       	com	r0
    29a0:	06 d0       	rcall	.+12     	; 0x29ae <__divmodhi4_neg1>
    29a2:	77 fd       	sbrc	r23, 7
    29a4:	08 d0       	rcall	.+16     	; 0x29b6 <__divmodhi4_neg2>
    29a6:	e4 df       	rcall	.-56     	; 0x2970 <__udivmodhi4>
    29a8:	07 fc       	sbrc	r0, 7
    29aa:	05 d0       	rcall	.+10     	; 0x29b6 <__divmodhi4_neg2>
    29ac:	3e f4       	brtc	.+14     	; 0x29bc <__divmodhi4_exit>

000029ae <__divmodhi4_neg1>:
    29ae:	90 95       	com	r25
    29b0:	81 95       	neg	r24
    29b2:	9f 4f       	sbci	r25, 0xFF	; 255
    29b4:	08 95       	ret

000029b6 <__divmodhi4_neg2>:
    29b6:	70 95       	com	r23
    29b8:	61 95       	neg	r22
    29ba:	7f 4f       	sbci	r23, 0xFF	; 255

000029bc <__divmodhi4_exit>:
    29bc:	08 95       	ret

000029be <__udivmodsi4>:
    29be:	a1 e2       	ldi	r26, 0x21	; 33
    29c0:	1a 2e       	mov	r1, r26
    29c2:	aa 1b       	sub	r26, r26
    29c4:	bb 1b       	sub	r27, r27
    29c6:	fd 01       	movw	r30, r26
    29c8:	0d c0       	rjmp	.+26     	; 0x29e4 <__udivmodsi4_ep>

000029ca <__udivmodsi4_loop>:
    29ca:	aa 1f       	adc	r26, r26
    29cc:	bb 1f       	adc	r27, r27
    29ce:	ee 1f       	adc	r30, r30
    29d0:	ff 1f       	adc	r31, r31
    29d2:	a2 17       	cp	r26, r18
    29d4:	b3 07       	cpc	r27, r19
    29d6:	e4 07       	cpc	r30, r20
    29d8:	f5 07       	cpc	r31, r21
    29da:	20 f0       	brcs	.+8      	; 0x29e4 <__udivmodsi4_ep>
    29dc:	a2 1b       	sub	r26, r18
    29de:	b3 0b       	sbc	r27, r19
    29e0:	e4 0b       	sbc	r30, r20
    29e2:	f5 0b       	sbc	r31, r21

000029e4 <__udivmodsi4_ep>:
    29e4:	66 1f       	adc	r22, r22
    29e6:	77 1f       	adc	r23, r23
    29e8:	88 1f       	adc	r24, r24
    29ea:	99 1f       	adc	r25, r25
    29ec:	1a 94       	dec	r1
    29ee:	69 f7       	brne	.-38     	; 0x29ca <__udivmodsi4_loop>
    29f0:	60 95       	com	r22
    29f2:	70 95       	com	r23
    29f4:	80 95       	com	r24
    29f6:	90 95       	com	r25
    29f8:	9b 01       	movw	r18, r22
    29fa:	ac 01       	movw	r20, r24
    29fc:	bd 01       	movw	r22, r26
    29fe:	cf 01       	movw	r24, r30
    2a00:	08 95       	ret

00002a02 <__umulhisi3>:
    2a02:	a2 9f       	mul	r26, r18
    2a04:	b0 01       	movw	r22, r0
    2a06:	b3 9f       	mul	r27, r19
    2a08:	c0 01       	movw	r24, r0
    2a0a:	a3 9f       	mul	r26, r19
    2a0c:	70 0d       	add	r23, r0
    2a0e:	81 1d       	adc	r24, r1
    2a10:	11 24       	eor	r1, r1
    2a12:	91 1d       	adc	r25, r1
    2a14:	b2 9f       	mul	r27, r18
    2a16:	70 0d       	add	r23, r0
    2a18:	81 1d       	adc	r24, r1
    2a1a:	11 24       	eor	r1, r1
    2a1c:	91 1d       	adc	r25, r1
    2a1e:	08 95       	ret

00002a20 <strlen>:
    2a20:	fc 01       	movw	r30, r24
    2a22:	01 90       	ld	r0, Z+
    2a24:	00 20       	and	r0, r0
    2a26:	e9 f7       	brne	.-6      	; 0x2a22 <strlen+0x2>
    2a28:	80 95       	com	r24
    2a2a:	90 95       	com	r25
    2a2c:	8e 0f       	add	r24, r30
    2a2e:	9f 1f       	adc	r25, r31
    2a30:	08 95       	ret

00002a32 <_exit>:
    2a32:	f8 94       	cli

00002a34 <__stop_program>:
    2a34:	ff cf       	rjmp	.-2      	; 0x2a34 <__stop_program>
